 camera3D

 Timestamp is 56bf171d (Sat Feb 13 13:44:29 2016)

 Preferred load address is 00400000

 Start         Length     Name                   Class
 0001:00000000 00014c8dH .textbss                DATA
 0002:00000000 00002b7eH .text$di                CODE
 0002:00002b80 00028e6eH .text$mn                CODE
 0002:0002b9f0 000033acH .text$x                 CODE
 0002:0002eda0 0000104bH .text$yd                CODE
 0003:00000000 00000104H .CRT$XCA                DATA
 0003:00000104 00000104H .CRT$XCAA               DATA
 0003:00000208 00000109H .CRT$XCU                DATA
 0003:00000314 00000104H .CRT$XCZ                DATA
 0003:00000418 00000104H .CRT$XIA                DATA
 0003:0000051c 00000104H .CRT$XIAA               DATA
 0003:00000620 00000104H .CRT$XIAC               DATA
 0003:00000724 00000104H .CRT$XIZ                DATA
 0003:00000828 00000104H .CRT$XPA                DATA
 0003:0000092c 00000104H .CRT$XPZ                DATA
 0003:00000a30 00000104H .CRT$XTA                DATA
 0003:00000b34 00000104H .CRT$XTZ                DATA
 0003:00000c40 000032b7H .rdata                  DATA
 0003:00003ef8 00000271H .rdata$r                DATA
 0003:0000416c 00000190H .rdata$zzzdbg           DATA
 0003:000042fc 00000104H .rtc$IAA                DATA
 0003:00004400 00000104H .rtc$IMZ                DATA
 0003:00004504 00000104H .rtc$IZZ                DATA
 0003:00004608 00000104H .rtc$TAA                DATA
 0003:0000470c 00000104H .rtc$TMZ                DATA
 0003:00004810 00000104H .rtc$TZZ                DATA
 0003:00004918 0000248aH .xdata$x                DATA
 0003:00006da2 00000000H .edata                  DATA
 0004:00000000 0000015dH .data                   DATA
 0004:00000160 00000198H .data$r                 DATA
 0004:000002f8 0000046cH .bss                    DATA
 0005:00000000 000004d8H .idata$5                DATA
 0005:000004d8 000000c8H .idata$2                DATA
 0005:000005a0 00000014H .idata$3                DATA
 0005:000005b4 000004d8H .idata$4                DATA
 0005:00000a8c 00001c5fH .idata$6                DATA
 0006:00000000 00000104H .00cfg                  DATA
 0007:00000000 00000169H .rsrc$01                DATA
 0007:00000170 000002ccH .rsrc$02                DATA

  Address         Publics by Value              Rva+Base       Lib:Object

 0000:00000000       ___guard_fids_count        00000000     <absolute>
 0000:00000000       ___guard_fids_table        00000000     <absolute>
 0000:00000000       ___safe_se_handler_table   00000000     <absolute>
 0000:00000000       ___safe_se_handler_count   00000000     <absolute>
 0000:00000100       ___guard_flags             00000100     <absolute>
 0000:00000000       ___ImageBase               00400000     <linker-defined>
 0001:00000000       __enc$textbss$begin        00401000     <linker-defined>
 0001:00014c8d       __enc$textbss$end          00415c8d     <linker-defined>
 0002:00002b80       ??$?0ABV?$allocator@D@std@@$$V@?$_Compressed_pair@U?$_Wrap_alloc@V?$allocator@D@std@@@std@@V?$_String_val@U?$_Simple_types@D@std@@@2@$00@std@@QAE@U_One_then_variadic_args_t@1@ABV?$allocator@D@1@@Z 00418b80 f i MainFile.obj
 0002:00002bf0       ??$?0ABV?$allocator@V?$Point3_@M@cv@@@std@@$$V@?$_Compressed_pair@U?$_Wrap_alloc@V?$allocator@V?$Point3_@M@cv@@@std@@@std@@V?$_Vector_val@U?$_Simple_types@V?$Point3_@M@cv@@@std@@@2@$00@std@@QAE@U_One_then_variadic_args_t@1@ABV?$allocator@V?$Point3_@M@cv@@@1@@Z 00418bf0 f i MainFile.obj
 0002:00002c60       ??$?0ABV?$allocator@V?$Point_@M@cv@@@std@@$$V@?$_Compressed_pair@U?$_Wrap_alloc@V?$allocator@V?$Point_@M@cv@@@std@@@std@@V?$_Vector_val@U?$_Simple_types@V?$Point_@M@cv@@@std@@@2@$00@std@@QAE@U_One_then_variadic_args_t@1@ABV?$allocator@V?$Point_@M@cv@@@1@@Z 00418c60 f i MainFile.obj
 0002:00002cd0       ??$?0ABV?$allocator@V?$Vec@M$02@cv@@@std@@$$V@?$_Compressed_pair@U?$_Wrap_alloc@V?$allocator@V?$Vec@M$02@cv@@@std@@@std@@V?$_Vector_val@U?$_Simple_types@V?$Vec@M$02@cv@@@std@@@2@$00@std@@QAE@U_One_then_variadic_args_t@1@ABV?$allocator@V?$Vec@M$02@cv@@@1@@Z 00418cd0 f i MainFile.obj
 0002:00002d40       ??$?0ABV?$allocator@V?$basic_string@DU?$char_traits@D@std@@V?$allocator@D@2@@std@@@std@@$$V@?$_Compressed_pair@U?$_Wrap_alloc@V?$allocator@V?$basic_string@DU?$char_traits@D@std@@V?$allocator@D@2@@std@@@std@@@std@@V?$_Vector_val@U?$_Simple_types@V?$basic_string@DU?$char_traits@D@std@@V?$allocator@D@2@@std@@@std@@@2@$00@std@@QAE@U_One_then_variadic_args_t@1@ABV?$allocator@V?$basic_string@DU?$char_traits@D@std@@V?$allocator@D@2@@std@@@1@@Z 00418d40 f i MainFile.obj
 0002:00002db0       ??$?0ABV?$allocator@V?$vector@V?$Point3_@M@cv@@V?$allocator@V?$Point3_@M@cv@@@std@@@std@@@std@@$$V@?$_Compressed_pair@U?$_Wrap_alloc@V?$allocator@V?$vector@V?$Point3_@M@cv@@V?$allocator@V?$Point3_@M@cv@@@std@@@std@@@std@@@std@@V?$_Vector_val@U?$_Simple_types@V?$vector@V?$Point3_@M@cv@@V?$allocator@V?$Point3_@M@cv@@@std@@@std@@@std@@@2@$00@std@@QAE@U_One_then_variadic_args_t@1@ABV?$allocator@V?$vector@V?$Point3_@M@cv@@V?$allocator@V?$Point3_@M@cv@@@std@@@std@@@1@@Z 00418db0 f i MainFile.obj
 0002:00002e20       ??$?0ABV?$allocator@V?$vector@V?$Point_@M@cv@@V?$allocator@V?$Point_@M@cv@@@std@@@std@@@std@@$$V@?$_Compressed_pair@U?$_Wrap_alloc@V?$allocator@V?$vector@V?$Point_@M@cv@@V?$allocator@V?$Point_@M@cv@@@std@@@std@@@std@@@std@@V?$_Vector_val@U?$_Simple_types@V?$vector@V?$Point_@M@cv@@V?$allocator@V?$Point_@M@cv@@@std@@@std@@@std@@@2@$00@std@@QAE@U_One_then_variadic_args_t@1@ABV?$allocator@V?$vector@V?$Point_@M@cv@@V?$allocator@V?$Point_@M@cv@@@std@@@std@@@1@@Z 00418e20 f i MainFile.obj
 0002:00002e90       ??$?0D@?$allocator@U_Container_proxy@std@@@std@@QAE@ABV?$allocator@D@1@@Z 00418e90 f i MainFile.obj
 0002:00002ed0       ??$?0N$03$00@_InputArray@cv@@QAE@ABV?$Matx@N$03$00@1@@Z 00418ed0 f i MainFile.obj
 0002:00002f50       ??$?0U?$_Wrap_alloc@V?$allocator@D@std@@@std@@@?$_Wrap_alloc@V?$allocator@U_Container_proxy@std@@@std@@@std@@QAE@AAU?$_Wrap_alloc@V?$allocator@D@std@@@1@@Z 00418f50 f i MainFile.obj
 0002:00002fb0       ??$?0U?$_Wrap_alloc@V?$allocator@V?$Point3_@M@cv@@@std@@@std@@@?$_Wrap_alloc@V?$allocator@U_Container_proxy@std@@@std@@@std@@QAE@AAU?$_Wrap_alloc@V?$allocator@V?$Point3_@M@cv@@@std@@@1@@Z 00418fb0 f i MainFile.obj
 0002:00003010       ??$?0U?$_Wrap_alloc@V?$allocator@V?$Point_@M@cv@@@std@@@std@@@?$_Wrap_alloc@V?$allocator@U_Container_proxy@std@@@std@@@std@@QAE@AAU?$_Wrap_alloc@V?$allocator@V?$Point_@M@cv@@@std@@@1@@Z 00419010 f i MainFile.obj
 0002:00003070       ??$?0U?$_Wrap_alloc@V?$allocator@V?$Vec@M$02@cv@@@std@@@std@@@?$_Wrap_alloc@V?$allocator@U_Container_proxy@std@@@std@@@std@@QAE@AAU?$_Wrap_alloc@V?$allocator@V?$Vec@M$02@cv@@@std@@@1@@Z 00419070 f i MainFile.obj
 0002:000030d0       ??$?0U?$_Wrap_alloc@V?$allocator@V?$basic_string@DU?$char_traits@D@std@@V?$allocator@D@2@@std@@@std@@@std@@@?$_Wrap_alloc@V?$allocator@U_Container_proxy@std@@@std@@@std@@QAE@AAU?$_Wrap_alloc@V?$allocator@V?$basic_string@DU?$char_traits@D@std@@V?$allocator@D@2@@std@@@std@@@1@@Z 004190d0 f i MainFile.obj
 0002:00003130       ??$?0U?$_Wrap_alloc@V?$allocator@V?$vector@V?$Point3_@M@cv@@V?$allocator@V?$Point3_@M@cv@@@std@@@std@@@std@@@std@@@?$_Wrap_alloc@V?$allocator@U_Container_proxy@std@@@std@@@std@@QAE@AAU?$_Wrap_alloc@V?$allocator@V?$vector@V?$Point3_@M@cv@@V?$allocator@V?$Point3_@M@cv@@@std@@@std@@@std@@@1@@Z 00419130 f i MainFile.obj
 0002:00003190       ??$?0U?$_Wrap_alloc@V?$allocator@V?$vector@V?$Point_@M@cv@@V?$allocator@V?$Point_@M@cv@@@std@@@std@@@std@@@std@@@?$_Wrap_alloc@V?$allocator@U_Container_proxy@std@@@std@@@std@@QAE@AAU?$_Wrap_alloc@V?$allocator@V?$vector@V?$Point_@M@cv@@V?$allocator@V?$Point_@M@cv@@@std@@@std@@@std@@@1@@Z 00419190 f i MainFile.obj
 0002:000031f0       ??$?0V?$Point3_@M@cv@@@?$allocator@U_Container_proxy@std@@@std@@QAE@ABV?$allocator@V?$Point3_@M@cv@@@1@@Z 004191f0 f i MainFile.obj
 0002:00003230       ??$?0V?$Point3_@M@cv@@@_InputArray@cv@@QAE@ABV?$vector@V?$vector@V?$Point3_@M@cv@@V?$allocator@V?$Point3_@M@cv@@@std@@@std@@V?$allocator@V?$vector@V?$Point3_@M@cv@@V?$allocator@V?$Point3_@M@cv@@@std@@@std@@@2@@std@@@Z 00419230 f i MainFile.obj
 0002:000032a0       ??$?0V?$Point_@M@cv@@@?$allocator@U_Container_proxy@std@@@std@@QAE@ABV?$allocator@V?$Point_@M@cv@@@1@@Z 004192a0 f i MainFile.obj
 0002:000032e0       ??$?0V?$Point_@M@cv@@@Mat@cv@@QAE@ABV?$vector@V?$Point_@M@cv@@V?$allocator@V?$Point_@M@cv@@@std@@@std@@_N@Z 004192e0 f i MainFile.obj
 0002:00003500       ?compare@?$char_traits@D@std@@SAHPBD0I@Z 00419500 f i MainFile.obj
 0002:00003580       ??$?0V?$Point_@M@cv@@@_InputArray@cv@@QAE@ABV?$vector@V?$Point_@M@cv@@V?$allocator@V?$Point_@M@cv@@@std@@@std@@@Z 00419580 f i MainFile.obj
 0002:000035f0       ??$?0V?$Point_@M@cv@@@_InputArray@cv@@QAE@ABV?$vector@V?$vector@V?$Point_@M@cv@@V?$allocator@V?$Point_@M@cv@@@std@@@std@@V?$allocator@V?$vector@V?$Point_@M@cv@@V?$allocator@V?$Point_@M@cv@@@std@@@std@@@2@@std@@@Z 004195f0 f i MainFile.obj
 0002:00003660       ??$?0V?$Point_@M@cv@@@_InputOutputArray@cv@@QAE@AAV?$vector@V?$Point_@M@cv@@V?$allocator@V?$Point_@M@cv@@@std@@@std@@@Z 00419660 f i MainFile.obj
 0002:00003710       ??$?0V?$Point_@M@cv@@@_OutputArray@cv@@QAE@AAV?$vector@V?$Point_@M@cv@@V?$allocator@V?$Point_@M@cv@@@std@@@std@@@Z 00419710 f i MainFile.obj
 0002:000037c0       ??$?0V?$Vec@M$02@cv@@@?$allocator@U_Container_proxy@std@@@std@@QAE@ABV?$allocator@V?$Vec@M$02@cv@@@1@@Z 004197c0 f i MainFile.obj
 0002:00003800       ??$?0V?$Vec@M$02@cv@@@_OutputArray@cv@@QAE@AAV?$vector@V?$Vec@M$02@cv@@V?$allocator@V?$Vec@M$02@cv@@@std@@@std@@@Z 00419800 f i MainFile.obj
 0002:000038b0       ??$?0V?$allocator@D@std@@$$V@?$_Compressed_pair@U?$_Wrap_alloc@V?$allocator@D@std@@@std@@V?$_String_val@U?$_Simple_types@D@std@@@2@$00@std@@QAE@U_One_then_variadic_args_t@1@$$QAV?$allocator@D@1@@Z 004198b0 f i MainFile.obj
 0002:00003920       ??$?0V?$allocator@V?$Point3_@M@cv@@@std@@$$V@?$_Compressed_pair@U?$_Wrap_alloc@V?$allocator@V?$Point3_@M@cv@@@std@@@std@@V?$_Vector_val@U?$_Simple_types@V?$Point3_@M@cv@@@std@@@2@$00@std@@QAE@U_One_then_variadic_args_t@1@$$QAV?$allocator@V?$Point3_@M@cv@@@1@@Z 00419920 f i MainFile.obj
 0002:00003990       ??$?0V?$allocator@V?$Point_@M@cv@@@std@@$$V@?$_Compressed_pair@U?$_Wrap_alloc@V?$allocator@V?$Point_@M@cv@@@std@@@std@@V?$_Vector_val@U?$_Simple_types@V?$Point_@M@cv@@@std@@@2@$00@std@@QAE@U_One_then_variadic_args_t@1@$$QAV?$allocator@V?$Point_@M@cv@@@1@@Z 00419990 f i MainFile.obj
 0002:00003a00       ??$?0V?$basic_string@DU?$char_traits@D@std@@V?$allocator@D@2@@std@@@?$allocator@U_Container_proxy@std@@@std@@QAE@ABV?$allocator@V?$basic_string@DU?$char_traits@D@std@@V?$allocator@D@2@@std@@@1@@Z 00419a00 f i MainFile.obj
 0002:00003a40       ??$?0V?$vector@V?$Point3_@M@cv@@V?$allocator@V?$Point3_@M@cv@@@std@@@std@@@?$allocator@U_Container_proxy@std@@@std@@QAE@ABV?$allocator@V?$vector@V?$Point3_@M@cv@@V?$allocator@V?$Point3_@M@cv@@@std@@@std@@@1@@Z 00419a40 f i MainFile.obj
 0002:00003a80       ??$?0V?$vector@V?$Point_@M@cv@@V?$allocator@V?$Point_@M@cv@@@std@@@std@@@?$allocator@U_Container_proxy@std@@@std@@QAE@ABV?$allocator@V?$vector@V?$Point_@M@cv@@V?$allocator@V?$Point_@M@cv@@@std@@@std@@@1@@Z 00419a80 f i MainFile.obj
 0002:00003ac0       ??$?6DU?$char_traits@D@std@@V?$allocator@D@1@@std@@YAAAV?$basic_ostream@DU?$char_traits@D@std@@@0@AAV10@ABV?$basic_string@DU?$char_traits@D@std@@V?$allocator@D@2@@0@@Z 00419ac0 f i MainFile.obj
 0002:00003f20       ?copy_frame@@YAXPAVMat@cv@@0@Z 00419f20 f   MainFile.obj
 0002:00003f60       ?max_size@?$_Wrap_alloc@V?$allocator@V?$vector@V?$Point3_@M@cv@@V?$allocator@V?$Point3_@M@cv@@@std@@@std@@@std@@@std@@QBEIU_Nil@2@@Z 00419f60 f i MainFile.obj
 0002:00003fb0       ?max_size@?$_Wrap_alloc@V?$allocator@V?$vector@V?$Point_@M@cv@@V?$allocator@V?$Point_@M@cv@@@std@@@std@@@std@@@std@@QBEIU_Nil@2@@Z 00419fb0 f i MainFile.obj
 0002:00004030       ??$?6U?$char_traits@D@std@@@std@@YAAAV?$basic_ostream@DU?$char_traits@D@std@@@0@AAV10@PBD@Z 0041a030 f i MainFile.obj
 0002:000044d0       ?empty@Mat@cv@@QBE_NXZ     0041a4d0 f i MainFile.obj
 0002:00004560       ?end@?$vector@V?$Point_@M@cv@@V?$allocator@V?$Point_@M@cv@@@std@@@std@@QAE?AV?$_Vector_iterator@V?$_Vector_val@U?$_Simple_types@V?$Point_@M@cv@@@std@@@std@@@2@XZ 0041a560 f i MainFile.obj
 0002:00004750       ??$?8DU?$char_traits@D@std@@V?$allocator@D@1@@std@@YA_NABV?$basic_string@DU?$char_traits@D@std@@V?$allocator@D@2@@0@PBD@Z 0041a750 f i MainFile.obj
 0002:000048d0       ??$_Addressof@$$CBV?$Point_@M@cv@@@std@@YAPBV?$Point_@M@cv@@ABV12@U?$integral_constant@_N$0A@@0@@Z 0041a8d0 f i MainFile.obj
 0002:00004910       ??$_Addressof@$$CBV?$basic_string@DU?$char_traits@D@std@@V?$allocator@D@2@@std@@@std@@YAPBV?$basic_string@DU?$char_traits@D@std@@V?$allocator@D@2@@0@ABV10@U?$integral_constant@_N$0A@@0@@Z 0041a910 f i MainFile.obj
 0002:00004950       ??$_Addressof@D@std@@YAPADAADU?$integral_constant@_N$0A@@0@@Z 0041a950 f i MainFile.obj
 0002:00004990       ??$_Addressof@V?$Point3_@M@cv@@@std@@YAPAV?$Point3_@M@cv@@AAV12@U?$integral_constant@_N$0A@@0@@Z 0041a990 f i MainFile.obj
 0002:000049d0       ??$_Addressof@V?$Point_@M@cv@@@std@@YAPAV?$Point_@M@cv@@AAV12@U?$integral_constant@_N$0A@@0@@Z 0041a9d0 f i MainFile.obj
 0002:00004a10       ??$_Addressof@V?$Vec@M$02@cv@@@std@@YAPAV?$Vec@M$02@cv@@AAV12@U?$integral_constant@_N$0A@@0@@Z 0041aa10 f i MainFile.obj
 0002:00004a50       ??$_Addressof@V?$basic_string@DU?$char_traits@D@std@@V?$allocator@D@2@@std@@@std@@YAPAV?$basic_string@DU?$char_traits@D@std@@V?$allocator@D@2@@0@AAV10@U?$integral_constant@_N$0A@@0@@Z 0041aa50 f i MainFile.obj
 0002:00004a90       ??$_Addressof@V?$vector@V?$Point3_@M@cv@@V?$allocator@V?$Point3_@M@cv@@@std@@@std@@@std@@YAPAV?$vector@V?$Point3_@M@cv@@V?$allocator@V?$Point3_@M@cv@@@std@@@0@AAV10@U?$integral_constant@_N$0A@@0@@Z 0041aa90 f i MainFile.obj
 0002:00004ad0       ??$_Addressof@V?$vector@V?$Point_@M@cv@@V?$allocator@V?$Point_@M@cv@@@std@@@std@@@std@@YAPAV?$vector@V?$Point_@M@cv@@V?$allocator@V?$Point_@M@cv@@@std@@@0@AAV10@U?$integral_constant@_N$0A@@0@@Z 0041aad0 f i MainFile.obj
 0002:00004b10       ??$_Allocate@D@std@@YAPADIPAD_N@Z 0041ab10 f i MainFile.obj
 0002:00004cd0       ?max_size@?$_Wrap_alloc@V?$allocator@V?$basic_string@DU?$char_traits@D@std@@V?$allocator@D@2@@std@@@std@@@std@@QBEIU_Nil@2@@Z 0041acd0 f i MainFile.obj
 0002:00004d40       ??$_Allocate@U_Container_proxy@std@@@std@@YAPAU_Container_proxy@0@IPAU10@_N@Z 0041ad40 f i MainFile.obj
 0002:00004f00       _sscanf                    0041af00 f i MainFile.obj
 0002:00004f70       ??$_Allocate@V?$Point3_@M@cv@@@std@@YAPAV?$Point3_@M@cv@@IPAV12@_N@Z 0041af70 f i MainFile.obj
 0002:00005130       _fabsf                     0041b130 f i MainFile.obj
 0002:000051a0       ??$_Allocate@V?$Point_@M@cv@@@std@@YAPAV?$Point_@M@cv@@IPAV12@_N@Z 0041b1a0 f i MainFile.obj
 0002:00005360       ?__autoclassinit2@String@cv@@QAEXI@Z 0041b360 f i MainFile.obj
 0002:000053d0       ??$_Allocate@V?$basic_string@DU?$char_traits@D@std@@V?$allocator@D@2@@std@@@std@@YAPAV?$basic_string@DU?$char_traits@D@std@@V?$allocator@D@2@@0@IPAV10@_N@Z 0041b3d0 f i MainFile.obj
 0002:00005590       ?capacity@?$vector@V?$vector@V?$Point_@M@cv@@V?$allocator@V?$Point_@M@cv@@@std@@@std@@V?$allocator@V?$vector@V?$Point_@M@cv@@V?$allocator@V?$Point_@M@cv@@@std@@@std@@@2@@std@@QBEIXZ 0041b590 f i MainFile.obj
 0002:00005600       ??$_Allocate@V?$vector@V?$Point3_@M@cv@@V?$allocator@V?$Point3_@M@cv@@@std@@@std@@@std@@YAPAV?$vector@V?$Point3_@M@cv@@V?$allocator@V?$Point3_@M@cv@@@std@@@0@IPAV10@_N@Z 0041b600 f i MainFile.obj
 0002:00005830       ??$_Allocate@V?$vector@V?$Point_@M@cv@@V?$allocator@V?$Point_@M@cv@@@std@@@std@@@std@@YAPAV?$vector@V?$Point_@M@cv@@V?$allocator@V?$Point_@M@cv@@@std@@@0@IPAV10@_N@Z 0041b830 f i MainFile.obj
 0002:00005a60       ??$_Copy_impl@PAV?$Point_@M@cv@@V?$back_insert_iterator@V?$vector@V?$Point_@M@cv@@V?$allocator@V?$Point_@M@cv@@@std@@@std@@@std@@@std@@YA?AV?$back_insert_iterator@V?$vector@V?$Point_@M@cv@@V?$allocator@V?$Point_@M@cv@@@std@@@std@@@0@PAV?$Point_@M@cv@@0V10@@Z 0041ba60 f i MainFile.obj
 0002:00005af0       ??$_Copy_impl@PAV?$Point_@M@cv@@V?$back_insert_iterator@V?$vector@V?$Point_@M@cv@@V?$allocator@V?$Point_@M@cv@@@std@@@std@@@std@@@std@@YA?AV?$back_insert_iterator@V?$vector@V?$Point_@M@cv@@V?$allocator@V?$Point_@M@cv@@@std@@@std@@@0@PAV?$Point_@M@cv@@0V10@U?$integral_constant@_N$00@0@@Z 0041baf0 f i MainFile.obj
 0002:00005ba0       ??$_Copy_impl@PAV?$Point_@M@cv@@V?$back_insert_iterator@V?$vector@V?$Point_@M@cv@@V?$allocator@V?$Point_@M@cv@@@std@@@std@@@std@@@std@@YA?AV?$back_insert_iterator@V?$vector@V?$Point_@M@cv@@V?$allocator@V?$Point_@M@cv@@@std@@@std@@@0@PAV?$Point_@M@cv@@0V10@U_Nonscalar_ptr_iterator_tag@0@@Z 0041bba0 f i MainFile.obj
 0002:00005c30       ??$_Copy_impl@PAV?$Point_@M@cv@@V?$back_insert_iterator@V?$vector@V?$Point_@M@cv@@V?$allocator@V?$Point_@M@cv@@@std@@@std@@@std@@@std@@YA?AV?$back_insert_iterator@V?$vector@V?$Point_@M@cv@@V?$allocator@V?$Point_@M@cv@@@std@@@std@@@0@PAV?$Point_@M@cv@@0V10@Uinput_iterator_tag@0@U_Mutable_iterator_tag@0@@Z 0041bc30 f i MainFile.obj
 0002:00005c90       ??$_Deallocate@D@std@@YAXPADI@Z 0041bc90 f i MainFile.obj
 0002:00005f80       ?erase@?$basic_string@DU?$char_traits@D@std@@V?$allocator@D@2@@std@@QAEAAV12@I@Z 0041bf80 f i MainFile.obj
 0002:00006040       ??$_Deallocate@U_Container_proxy@std@@@std@@YAXPAU_Container_proxy@0@I@Z 0041c040 f i MainFile.obj
 0002:00006340       ?max_size@?$allocator_traits@V?$allocator@V?$vector@V?$Point3_@M@cv@@V?$allocator@V?$Point3_@M@cv@@@std@@@std@@@std@@@std@@SAIABV?$allocator@V?$vector@V?$Point3_@M@cv@@V?$allocator@V?$Point3_@M@cv@@@std@@@std@@@2@@Z 0041c340 f i MainFile.obj
 0002:00006380       ?max_size@?$basic_string@DU?$char_traits@D@std@@V?$allocator@D@2@@std@@QBEIXZ 0041c380 f i MainFile.obj
 0002:00006400       ??$_Deallocate@V?$Point3_@M@cv@@@std@@YAXPAV?$Point3_@M@cv@@I@Z 0041c400 f i MainFile.obj
 0002:00006700       ?max_size@?$vector@V?$vector@V?$Point_@M@cv@@V?$allocator@V?$Point_@M@cv@@@std@@@std@@V?$allocator@V?$vector@V?$Point_@M@cv@@V?$allocator@V?$Point_@M@cv@@@std@@@std@@@2@@std@@QBEIXZ 0041c700 f i MainFile.obj
 0002:000067b0       ??$_Deallocate@V?$Point_@M@cv@@@std@@YAXPAV?$Point_@M@cv@@I@Z 0041c7b0 f i MainFile.obj
 0002:00006ab0       ?my_button_cb@@YAXHPAX@Z   0041cab0 f   MainFile.obj
 0002:00006b70       ??$_Deallocate@V?$Vec@M$02@cv@@@std@@YAXPAV?$Vec@M$02@cv@@I@Z 0041cb70 f i MainFile.obj
 0002:00006e70       ?total@Mat@cv@@QBEIXZ      0041ce70 f i MainFile.obj
 0002:00006f20       ??$_Deallocate@V?$basic_string@DU?$char_traits@D@std@@V?$allocator@D@2@@std@@@std@@YAXPAV?$basic_string@DU?$char_traits@D@std@@V?$allocator@D@2@@0@I@Z 0041cf20 f i MainFile.obj
 0002:00007220       ?swap@?$Ptr@UCvCapture@@@cv@@QAEXAAU12@@Z 0041d220 f i MainFile.obj
 0002:000072d0       ??$_Deallocate@V?$vector@V?$Point3_@M@cv@@V?$allocator@V?$Point3_@M@cv@@@std@@@std@@@std@@YAXPAV?$vector@V?$Point3_@M@cv@@V?$allocator@V?$Point3_@M@cv@@@std@@@0@I@Z 0041d2d0 f i MainFile.obj
 0002:000075d0       ?begin@?$vector@V?$Point_@M@cv@@V?$allocator@V?$Point_@M@cv@@@std@@@std@@QAE?AV?$_Vector_iterator@V?$_Vector_val@U?$_Simple_types@V?$Point_@M@cv@@@std@@@std@@@2@XZ 0041d5d0 f i MainFile.obj
 0002:00007690       ??$_Deallocate@V?$vector@V?$Point_@M@cv@@V?$allocator@V?$Point_@M@cv@@@std@@@std@@@std@@YAXPAV?$vector@V?$Point_@M@cv@@V?$allocator@V?$Point_@M@cv@@@std@@@0@I@Z 0041d690 f i MainFile.obj
 0002:00007990       ?on_BarChange_launch@@YAXH@Z 0041d990 f   MainFile.obj
 0002:00007a50       ??$_Debug_pointer@$$CBD@std@@YAXPBDPB_WI@Z 0041da50 f i MainFile.obj
 0002:00007ac0       ??$_Debug_pointer@V?$Point3_@M@cv@@@std@@YAXPAV?$Point3_@M@cv@@PB_WI@Z 0041dac0 f i MainFile.obj
 0002:00007b30       ??$_Debug_pointer@V?$Point_@M@cv@@@std@@YAXPAV?$Point_@M@cv@@PB_WI@Z 0041db30 f i MainFile.obj
 0002:00007ba0       ??$_Debug_pointer@V?$_Vector_iterator@V?$_Vector_val@U?$_Simple_types@V?$Point_@M@cv@@@std@@@std@@@std@@@std@@YAXAAV?$_Vector_iterator@V?$_Vector_val@U?$_Simple_types@V?$Point_@M@cv@@@std@@@std@@@0@PB_WI@Z 0041dba0 f i MainFile.obj
 0002:00007bd0       ??$_Debug_pointer@V?$back_insert_iterator@V?$vector@V?$Point_@M@cv@@V?$allocator@V?$Point_@M@cv@@@std@@@std@@@std@@@std@@YAXAAV?$back_insert_iterator@V?$vector@V?$Point_@M@cv@@V?$allocator@V?$Point_@M@cv@@@std@@@std@@@0@PB_WI@Z 0041dbd0 f i MainFile.obj
 0002:00007c00       ??$_Debug_pointer@V?$basic_string@DU?$char_traits@D@std@@V?$allocator@D@2@@std@@@std@@YAXPAV?$basic_string@DU?$char_traits@D@std@@V?$allocator@D@2@@0@PB_WI@Z 0041dc00 f i MainFile.obj
 0002:00007c70       ??$_Debug_pointer@V?$vector@V?$Point3_@M@cv@@V?$allocator@V?$Point3_@M@cv@@@std@@@std@@@std@@YAXPAV?$vector@V?$Point3_@M@cv@@V?$allocator@V?$Point3_@M@cv@@@std@@@0@PB_WI@Z 0041dc70 f i MainFile.obj
 0002:00007ce0       ??$_Debug_pointer@V?$vector@V?$Point_@M@cv@@V?$allocator@V?$Point_@M@cv@@@std@@@std@@@std@@YAXPAV?$vector@V?$Point_@M@cv@@V?$allocator@V?$Point_@M@cv@@@std@@@0@PB_WI@Z 0041dce0 f i MainFile.obj
 0002:00007d50       ??$_Debug_pointer_if@$$CBD@std@@YAX_NPBDPB_WI@Z 0041dd50 f i MainFile.obj
 0002:00007dd0       ??$_Debug_range_ptr2@PAV?$Point3_@M@cv@@PAV12@@std@@YAXPAV?$Point3_@M@cv@@0AAPAV12@PB_WIUrandom_access_iterator_tag@0@@Z 0041ddd0 f i MainFile.obj
 0002:00007ea0       ??$_Debug_range_ptr2@PAV?$Point_@M@cv@@PAV12@@std@@YAXPAV?$Point_@M@cv@@0AAPAV12@PB_WIUrandom_access_iterator_tag@0@@Z 0041dea0 f i MainFile.obj
 0002:00007f70       ??$_Debug_range_ptr2@PAV?$basic_string@DU?$char_traits@D@std@@V?$allocator@D@2@@std@@PAV12@@std@@YAXPAV?$basic_string@DU?$char_traits@D@std@@V?$allocator@D@2@@0@0AAPAV10@PB_WIUrandom_access_iterator_tag@0@@Z 0041df70 f i MainFile.obj
 0002:00008040       ??$_Debug_range_ptr2@PAV?$vector@V?$Point3_@M@cv@@V?$allocator@V?$Point3_@M@cv@@@std@@@std@@PAV12@@std@@YAXPAV?$vector@V?$Point3_@M@cv@@V?$allocator@V?$Point3_@M@cv@@@std@@@0@0AAPAV10@PB_WIUrandom_access_iterator_tag@0@@Z 0041e040 f i MainFile.obj
 0002:00008110       ??$_Debug_range_ptr2@PAV?$vector@V?$Point_@M@cv@@V?$allocator@V?$Point_@M@cv@@@std@@@std@@PAV12@@std@@YAXPAV?$vector@V?$Point_@M@cv@@V?$allocator@V?$Point_@M@cv@@@std@@@0@0AAPAV10@PB_WIUrandom_access_iterator_tag@0@@Z 0041e110 f i MainFile.obj
 0002:000081e0       ??$_Debug_range_ptr2@V?$_Vector_iterator@V?$_Vector_val@U?$_Simple_types@V?$Point_@M@cv@@@std@@@std@@@std@@V?$back_insert_iterator@V?$vector@V?$Point_@M@cv@@V?$allocator@V?$Point_@M@cv@@@std@@@std@@@2@@std@@YAXV?$_Vector_iterator@V?$_Vector_val@U?$_Simple_types@V?$Point_@M@cv@@@std@@@std@@@0@0AAV?$back_insert_iterator@V?$vector@V?$Point_@M@cv@@V?$allocator@V?$Point_@M@cv@@@std@@@std@@@0@PB_WIUrandom_access_iterator_tag@0@@Z 0041e1e0 f i MainFile.obj
 0002:00008320       ??$_Debug_range_ptr@PAV?$Point3_@M@cv@@PAV12@@std@@YAXPAV?$Point3_@M@cv@@0AAPAV12@PB_WI@Z 0041e320 f i MainFile.obj
 0002:000083a0       ??$_Debug_range_ptr@PAV?$Point_@M@cv@@PAV12@@std@@YAXPAV?$Point_@M@cv@@0AAPAV12@PB_WI@Z 0041e3a0 f i MainFile.obj
 0002:00008420       ??$_Debug_range_ptr@PAV?$basic_string@DU?$char_traits@D@std@@V?$allocator@D@2@@std@@PAV12@@std@@YAXPAV?$basic_string@DU?$char_traits@D@std@@V?$allocator@D@2@@0@0AAPAV10@PB_WI@Z 0041e420 f i MainFile.obj
 0002:000084a0       ??$_Debug_range_ptr@PAV?$vector@V?$Point3_@M@cv@@V?$allocator@V?$Point3_@M@cv@@@std@@@std@@PAV12@@std@@YAXPAV?$vector@V?$Point3_@M@cv@@V?$allocator@V?$Point3_@M@cv@@@std@@@0@0AAPAV10@PB_WI@Z 0041e4a0 f i MainFile.obj
 0002:00008520       ??$_Debug_range_ptr@PAV?$vector@V?$Point_@M@cv@@V?$allocator@V?$Point_@M@cv@@@std@@@std@@PAV12@@std@@YAXPAV?$vector@V?$Point_@M@cv@@V?$allocator@V?$Point_@M@cv@@@std@@@0@0AAPAV10@PB_WI@Z 0041e520 f i MainFile.obj
 0002:000085a0       ??$_Debug_range_ptr@V?$_Vector_iterator@V?$_Vector_val@U?$_Simple_types@V?$Point_@M@cv@@@std@@@std@@@std@@V?$back_insert_iterator@V?$vector@V?$Point_@M@cv@@V?$allocator@V?$Point_@M@cv@@@std@@@std@@@2@@std@@YAXV?$_Vector_iterator@V?$_Vector_val@U?$_Simple_types@V?$Point_@M@cv@@@std@@@std@@@0@0AAV?$back_insert_iterator@V?$vector@V?$Point_@M@cv@@V?$allocator@V?$Point_@M@cv@@@std@@@std@@@0@PB_WI@Z 0041e5a0 f i MainFile.obj
 0002:000086d0       ??$_Destroy_range@U?$_Wrap_alloc@V?$allocator@V?$Point3_@M@cv@@@std@@@std@@@std@@YAXPAV?$Point3_@M@cv@@0AAU?$_Wrap_alloc@V?$allocator@V?$Point3_@M@cv@@@std@@@0@@Z 0041e6d0 f i MainFile.obj
 0002:00008750       ??$_Destroy_range@U?$_Wrap_alloc@V?$allocator@V?$Point3_@M@cv@@@std@@@std@@@std@@YAXPAV?$Point3_@M@cv@@0AAU?$_Wrap_alloc@V?$allocator@V?$Point3_@M@cv@@@std@@@0@U_Nonscalar_ptr_iterator_tag@0@@Z 0041e750 f i MainFile.obj
 0002:000087d0       ??$_Destroy_range@U?$_Wrap_alloc@V?$allocator@V?$Point_@M@cv@@@std@@@std@@@std@@YAXPAV?$Point_@M@cv@@0AAU?$_Wrap_alloc@V?$allocator@V?$Point_@M@cv@@@std@@@0@@Z 0041e7d0 f i MainFile.obj
 0002:00008850       ??$_Destroy_range@U?$_Wrap_alloc@V?$allocator@V?$Point_@M@cv@@@std@@@std@@@std@@YAXPAV?$Point_@M@cv@@0AAU?$_Wrap_alloc@V?$allocator@V?$Point_@M@cv@@@std@@@0@U_Nonscalar_ptr_iterator_tag@0@@Z 0041e850 f i MainFile.obj
 0002:000088d0       ??$_Destroy_range@U?$_Wrap_alloc@V?$allocator@V?$Vec@M$02@cv@@@std@@@std@@@std@@YAXPAV?$Vec@M$02@cv@@0AAU?$_Wrap_alloc@V?$allocator@V?$Vec@M$02@cv@@@std@@@0@@Z 0041e8d0 f i MainFile.obj
 0002:00008950       ??$_Destroy_range@U?$_Wrap_alloc@V?$allocator@V?$Vec@M$02@cv@@@std@@@std@@@std@@YAXPAV?$Vec@M$02@cv@@0AAU?$_Wrap_alloc@V?$allocator@V?$Vec@M$02@cv@@@std@@@0@U_Nonscalar_ptr_iterator_tag@0@@Z 0041e950 f i MainFile.obj
 0002:000089d0       ??$_Destroy_range@U?$_Wrap_alloc@V?$allocator@V?$basic_string@DU?$char_traits@D@std@@V?$allocator@D@2@@std@@@std@@@std@@@std@@YAXPAV?$basic_string@DU?$char_traits@D@std@@V?$allocator@D@2@@0@0AAU?$_Wrap_alloc@V?$allocator@V?$basic_string@DU?$char_traits@D@std@@V?$allocator@D@2@@std@@@std@@@0@@Z 0041e9d0 f i MainFile.obj
 0002:00008a50       ??$_Destroy_range@U?$_Wrap_alloc@V?$allocator@V?$basic_string@DU?$char_traits@D@std@@V?$allocator@D@2@@std@@@std@@@std@@@std@@YAXPAV?$basic_string@DU?$char_traits@D@std@@V?$allocator@D@2@@0@0AAU?$_Wrap_alloc@V?$allocator@V?$basic_string@DU?$char_traits@D@std@@V?$allocator@D@2@@std@@@std@@@0@U_Nonscalar_ptr_iterator_tag@0@@Z 0041ea50 f i MainFile.obj
 0002:00008ad0       ??$_Destroy_range@U?$_Wrap_alloc@V?$allocator@V?$vector@V?$Point3_@M@cv@@V?$allocator@V?$Point3_@M@cv@@@std@@@std@@@std@@@std@@@std@@YAXPAV?$vector@V?$Point3_@M@cv@@V?$allocator@V?$Point3_@M@cv@@@std@@@0@0AAU?$_Wrap_alloc@V?$allocator@V?$vector@V?$Point3_@M@cv@@V?$allocator@V?$Point3_@M@cv@@@std@@@std@@@std@@@0@@Z 0041ead0 f i MainFile.obj
 0002:00008b50       ??$_Destroy_range@U?$_Wrap_alloc@V?$allocator@V?$vector@V?$Point3_@M@cv@@V?$allocator@V?$Point3_@M@cv@@@std@@@std@@@std@@@std@@@std@@YAXPAV?$vector@V?$Point3_@M@cv@@V?$allocator@V?$Point3_@M@cv@@@std@@@0@0AAU?$_Wrap_alloc@V?$allocator@V?$vector@V?$Point3_@M@cv@@V?$allocator@V?$Point3_@M@cv@@@std@@@std@@@std@@@0@U_Nonscalar_ptr_iterator_tag@0@@Z 0041eb50 f i MainFile.obj
 0002:00008bd0       ??$_Destroy_range@U?$_Wrap_alloc@V?$allocator@V?$vector@V?$Point_@M@cv@@V?$allocator@V?$Point_@M@cv@@@std@@@std@@@std@@@std@@@std@@YAXPAV?$vector@V?$Point_@M@cv@@V?$allocator@V?$Point_@M@cv@@@std@@@0@0AAU?$_Wrap_alloc@V?$allocator@V?$vector@V?$Point_@M@cv@@V?$allocator@V?$Point_@M@cv@@@std@@@std@@@std@@@0@@Z 0041ebd0 f i MainFile.obj
 0002:00008c50       ??$_Destroy_range@U?$_Wrap_alloc@V?$allocator@V?$vector@V?$Point_@M@cv@@V?$allocator@V?$Point_@M@cv@@@std@@@std@@@std@@@std@@@std@@YAXPAV?$vector@V?$Point_@M@cv@@V?$allocator@V?$Point_@M@cv@@@std@@@0@0AAU?$_Wrap_alloc@V?$allocator@V?$vector@V?$Point_@M@cv@@V?$allocator@V?$Point_@M@cv@@@std@@@std@@@std@@@0@U_Nonscalar_ptr_iterator_tag@0@@Z 0041ec50 f i MainFile.obj
 0002:00008cd0       ??$_Is_checked@V?$back_insert_iterator@V?$vector@V?$Point_@M@cv@@V?$allocator@V?$Point_@M@cv@@@std@@@std@@@std@@@std@@YA?AU?$integral_constant@_N$00@0@V?$back_insert_iterator@V?$vector@V?$Point_@M@cv@@V?$allocator@V?$Point_@M@cv@@@std@@@std@@@0@@Z 0041ecd0 f i MainFile.obj
 0002:00008d10       ??$_Iter_cat@PAV?$Point3_@M@cv@@@std@@YA?AUrandom_access_iterator_tag@0@ABQAV?$Point3_@M@cv@@@Z 0041ed10 f i MainFile.obj
 0002:00008d90       ??$_Iter_cat@PAV?$Point_@M@cv@@@std@@YA?AUrandom_access_iterator_tag@0@ABQAV?$Point_@M@cv@@@Z 0041ed90 f i MainFile.obj
 0002:00008e10       ??$_Iter_cat@PAV?$basic_string@DU?$char_traits@D@std@@V?$allocator@D@2@@std@@@std@@YA?AUrandom_access_iterator_tag@0@ABQAV?$basic_string@DU?$char_traits@D@std@@V?$allocator@D@2@@0@@Z 0041ee10 f i MainFile.obj
 0002:00008e90       ??$_Iter_cat@PAV?$vector@V?$Point3_@M@cv@@V?$allocator@V?$Point3_@M@cv@@@std@@@std@@@std@@YA?AUrandom_access_iterator_tag@0@ABQAV?$vector@V?$Point3_@M@cv@@V?$allocator@V?$Point3_@M@cv@@@std@@@0@@Z 0041ee90 f i MainFile.obj
 0002:00008f10       ??$_Iter_cat@PAV?$vector@V?$Point_@M@cv@@V?$allocator@V?$Point_@M@cv@@@std@@@std@@@std@@YA?AUrandom_access_iterator_tag@0@ABQAV?$vector@V?$Point_@M@cv@@V?$allocator@V?$Point_@M@cv@@@std@@@0@@Z 0041ef10 f i MainFile.obj
 0002:00008f90       ??$_Iter_cat@V?$_Vector_iterator@V?$_Vector_val@U?$_Simple_types@V?$Point_@M@cv@@@std@@@std@@@std@@@std@@YA?AUrandom_access_iterator_tag@0@ABV?$_Vector_iterator@V?$_Vector_val@U?$_Simple_types@V?$Point_@M@cv@@@std@@@std@@@0@@Z 0041ef90 f i MainFile.obj
 0002:00009010       ??$_Iter_cat@V?$back_insert_iterator@V?$vector@V?$Point_@M@cv@@V?$allocator@V?$Point_@M@cv@@@std@@@std@@@std@@@std@@YA?AUoutput_iterator_tag@0@ABV?$back_insert_iterator@V?$vector@V?$Point_@M@cv@@V?$allocator@V?$Point_@M@cv@@@std@@@std@@@0@@Z 0041f010 f i MainFile.obj
 0002:00009080       ??$_Move@AAPAUCvCapture@@@std@@YA$$QAPAUCvCapture@@AAPAU1@@Z 0041f080 f i MainFile.obj
 0002:000090c0       ??$_Move@AAPAUPtrOwner@detail@cv@@@std@@YA$$QAPAUPtrOwner@detail@cv@@AAPAU123@@Z 0041f0c0 f i MainFile.obj
 0002:00009100       ??$_Move@AAPAVIVideoCapture@cv@@@std@@YA$$QAPAVIVideoCapture@cv@@AAPAV12@@Z 0041f100 f i MainFile.obj
 0002:00009140       ??$_Ptr_cat@PAV?$Point_@M@cv@@V?$back_insert_iterator@V?$vector@V?$Point_@M@cv@@V?$allocator@V?$Point_@M@cv@@@std@@@std@@@std@@@std@@YA?AU_Nonscalar_ptr_iterator_tag@0@AAPAV?$Point_@M@cv@@AAV?$back_insert_iterator@V?$vector@V?$Point_@M@cv@@V?$allocator@V?$Point_@M@cv@@@std@@@std@@@0@@Z 0041f140 f i MainFile.obj
 0002:000091b0       ??$_Ptr_cat@V?$Point3_@M@cv@@V12@@std@@YA?AU_Nonscalar_ptr_iterator_tag@0@PAV?$Point3_@M@cv@@0@Z 0041f1b0 f i MainFile.obj
 0002:00009220       ??$_Ptr_cat@V?$Point_@M@cv@@V12@@std@@YA?AU_Nonscalar_ptr_iterator_tag@0@PAV?$Point_@M@cv@@0@Z 0041f220 f i MainFile.obj
 0002:00009290       ??$_Ptr_cat@V?$Vec@M$02@cv@@V12@@std@@YA?AU_Nonscalar_ptr_iterator_tag@0@PAV?$Vec@M$02@cv@@0@Z 0041f290 f i MainFile.obj
 0002:00009300       ??$_Ptr_cat@V?$basic_string@DU?$char_traits@D@std@@V?$allocator@D@2@@std@@V12@@std@@YA?AU_Nonscalar_ptr_iterator_tag@0@PAV?$basic_string@DU?$char_traits@D@std@@V?$allocator@D@2@@0@0@Z 0041f300 f i MainFile.obj
 0002:00009370       ??$_Ptr_cat@V?$vector@V?$Point3_@M@cv@@V?$allocator@V?$Point3_@M@cv@@@std@@@std@@V12@@std@@YA?AU_Nonscalar_ptr_iterator_tag@0@PAV?$vector@V?$Point3_@M@cv@@V?$allocator@V?$Point3_@M@cv@@@std@@@0@0@Z 0041f370 f i MainFile.obj
 0002:000093e0       ??$_Ptr_cat@V?$vector@V?$Point_@M@cv@@V?$allocator@V?$Point_@M@cv@@@std@@@std@@V12@@std@@YA?AU_Nonscalar_ptr_iterator_tag@0@PAV?$vector@V?$Point_@M@cv@@V?$allocator@V?$Point_@M@cv@@@std@@@0@0@Z 0041f3e0 f i MainFile.obj
 0002:00009450       ??$_Rechecked@PAV?$Point3_@M@cv@@PAV12@@std@@YAAAPAV?$Point3_@M@cv@@AAPAV12@PAV12@@Z 0041f450 f i MainFile.obj
 0002:00009490       ??$_Rechecked@PAV?$Point_@M@cv@@PAV12@@std@@YAAAPAV?$Point_@M@cv@@AAPAV12@PAV12@@Z 0041f490 f i MainFile.obj
 0002:000094d0       ??$_Rechecked@PAV?$basic_string@DU?$char_traits@D@std@@V?$allocator@D@2@@std@@PAV12@@std@@YAAAPAV?$basic_string@DU?$char_traits@D@std@@V?$allocator@D@2@@0@AAPAV10@PAV10@@Z 0041f4d0 f i MainFile.obj
 0002:00009510       ??$_Rechecked@PAV?$vector@V?$Point3_@M@cv@@V?$allocator@V?$Point3_@M@cv@@@std@@@std@@PAV12@@std@@YAAAPAV?$vector@V?$Point3_@M@cv@@V?$allocator@V?$Point3_@M@cv@@@std@@@0@AAPAV10@PAV10@@Z 0041f510 f i MainFile.obj
 0002:00009550       ??$_Rechecked@PAV?$vector@V?$Point_@M@cv@@V?$allocator@V?$Point_@M@cv@@@std@@@std@@PAV12@@std@@YAAAPAV?$vector@V?$Point_@M@cv@@V?$allocator@V?$Point_@M@cv@@@std@@@0@AAPAV10@PAV10@@Z 0041f550 f i MainFile.obj
 0002:00009590       ??$_Umove@PAV?$Point3_@M@cv@@@?$vector@V?$Point3_@M@cv@@V?$allocator@V?$Point3_@M@cv@@@std@@@std@@IAEPAV?$Point3_@M@cv@@PAV23@00@Z 0041f590 f i MainFile.obj
 0002:00009600       ??$_Umove@PAV?$Point_@M@cv@@@?$vector@V?$Point_@M@cv@@V?$allocator@V?$Point_@M@cv@@@std@@@std@@IAEPAV?$Point_@M@cv@@PAV23@00@Z 0041f600 f i MainFile.obj
 0002:00009670       ??$_Umove@PAV?$basic_string@DU?$char_traits@D@std@@V?$allocator@D@2@@std@@@?$vector@V?$basic_string@DU?$char_traits@D@std@@V?$allocator@D@2@@std@@V?$allocator@V?$basic_string@DU?$char_traits@D@std@@V?$allocator@D@2@@std@@@2@@std@@IAEPAV?$basic_string@DU?$char_traits@D@std@@V?$allocator@D@2@@1@PAV21@00@Z 0041f670 f i MainFile.obj
 0002:000096e0       ??$_Umove@PAV?$vector@V?$Point3_@M@cv@@V?$allocator@V?$Point3_@M@cv@@@std@@@std@@@?$vector@V?$vector@V?$Point3_@M@cv@@V?$allocator@V?$Point3_@M@cv@@@std@@@std@@V?$allocator@V?$vector@V?$Point3_@M@cv@@V?$allocator@V?$Point3_@M@cv@@@std@@@std@@@2@@std@@IAEPAV?$vector@V?$Point3_@M@cv@@V?$allocator@V?$Point3_@M@cv@@@std@@@1@PAV21@00@Z 0041f6e0 f i MainFile.obj
 0002:00009750       ??$_Umove@PAV?$vector@V?$Point_@M@cv@@V?$allocator@V?$Point_@M@cv@@@std@@@std@@@?$vector@V?$vector@V?$Point_@M@cv@@V?$allocator@V?$Point_@M@cv@@@std@@@std@@V?$allocator@V?$vector@V?$Point_@M@cv@@V?$allocator@V?$Point_@M@cv@@@std@@@std@@@2@@std@@IAEPAV?$vector@V?$Point_@M@cv@@V?$allocator@V?$Point_@M@cv@@@std@@@1@PAV21@00@Z 0041f750 f i MainFile.obj
 0002:000097c0       ??$_Unchecked@PAV?$Point3_@M@cv@@@std@@YAPAV?$Point3_@M@cv@@PAV12@@Z 0041f7c0 f i MainFile.obj
 0002:00009800       ??$_Unchecked@PAV?$Point_@M@cv@@@std@@YAPAV?$Point_@M@cv@@PAV12@@Z 0041f800 f i MainFile.obj
 0002:00009840       ??$_Unchecked@PAV?$basic_string@DU?$char_traits@D@std@@V?$allocator@D@2@@std@@@std@@YAPAV?$basic_string@DU?$char_traits@D@std@@V?$allocator@D@2@@0@PAV10@@Z 0041f840 f i MainFile.obj
 0002:00009880       ??$_Unchecked@PAV?$vector@V?$Point3_@M@cv@@V?$allocator@V?$Point3_@M@cv@@@std@@@std@@@std@@YAPAV?$vector@V?$Point3_@M@cv@@V?$allocator@V?$Point3_@M@cv@@@std@@@0@PAV10@@Z 0041f880 f i MainFile.obj
 0002:000098c0       ??$_Unchecked@PAV?$vector@V?$Point_@M@cv@@V?$allocator@V?$Point_@M@cv@@@std@@@std@@@std@@YAPAV?$vector@V?$Point_@M@cv@@V?$allocator@V?$Point_@M@cv@@@std@@@0@PAV10@@Z 0041f8c0 f i MainFile.obj
 0002:00009900       ??$_Unchecked@V?$_Vector_val@U?$_Simple_types@V?$Point_@M@cv@@@std@@@std@@@std@@YAPAV?$Point_@M@cv@@V?$_Vector_iterator@V?$_Vector_val@U?$_Simple_types@V?$Point_@M@cv@@@std@@@std@@@0@@Z 0041f900 f i MainFile.obj
 0002:000099b0       ??$_Uninit_def_fill_n@PAV?$basic_string@DU?$char_traits@D@std@@V?$allocator@D@2@@std@@IV?$allocator@V?$basic_string@DU?$char_traits@D@std@@V?$allocator@D@2@@std@@@2@V12@@std@@YAXPAV?$basic_string@DU?$char_traits@D@std@@V?$allocator@D@2@@0@IAAU?$_Wrap_alloc@V?$allocator@V?$basic_string@DU?$char_traits@D@std@@V?$allocator@D@2@@std@@@std@@@0@0U_Nonscalar_ptr_iterator_tag@0@@Z 0041f9b0 f i MainFile.obj
 0002:00009ac0       ??$_Uninit_def_fill_n@PAV?$vector@V?$Point3_@M@cv@@V?$allocator@V?$Point3_@M@cv@@@std@@@std@@IV?$allocator@V?$vector@V?$Point3_@M@cv@@V?$allocator@V?$Point3_@M@cv@@@std@@@std@@@2@V12@@std@@YAXPAV?$vector@V?$Point3_@M@cv@@V?$allocator@V?$Point3_@M@cv@@@std@@@0@IAAU?$_Wrap_alloc@V?$allocator@V?$vector@V?$Point3_@M@cv@@V?$allocator@V?$Point3_@M@cv@@@std@@@std@@@std@@@0@0U_Nonscalar_ptr_iterator_tag@0@@Z 0041fac0 f i MainFile.obj
 0002:00009bd0       ??$_Uninit_def_fill_n@PAV?$vector@V?$Point_@M@cv@@V?$allocator@V?$Point_@M@cv@@@std@@@std@@IV?$allocator@V?$vector@V?$Point_@M@cv@@V?$allocator@V?$Point_@M@cv@@@std@@@std@@@2@V12@@std@@YAXPAV?$vector@V?$Point_@M@cv@@V?$allocator@V?$Point_@M@cv@@@std@@@0@IAAU?$_Wrap_alloc@V?$allocator@V?$vector@V?$Point_@M@cv@@V?$allocator@V?$Point_@M@cv@@@std@@@std@@@std@@@0@0U_Nonscalar_ptr_iterator_tag@0@@Z 0041fbd0 f i MainFile.obj
 0002:00009ce0       ??$_Uninit_move@PAV?$Point3_@M@cv@@PAV12@U?$_Wrap_alloc@V?$allocator@V?$Point3_@M@cv@@@std@@@std@@@std@@YAPAV?$Point3_@M@cv@@PAV12@00AAU?$_Wrap_alloc@V?$allocator@V?$Point3_@M@cv@@@std@@@0@@Z 0041fce0 f i MainFile.obj
 0002:00009d80       ??$_Uninit_move@PAV?$Point3_@M@cv@@PAV12@V?$allocator@V?$Point3_@M@cv@@@std@@V12@@std@@YAPAV?$Point3_@M@cv@@PAV12@00AAU?$_Wrap_alloc@V?$allocator@V?$Point3_@M@cv@@@std@@@0@0U_Nonscalar_ptr_iterator_tag@0@@Z 0041fd80 f i MainFile.obj
 0002:00009ec0       ??$_Uninit_move@PAV?$Point_@M@cv@@PAV12@U?$_Wrap_alloc@V?$allocator@V?$Point_@M@cv@@@std@@@std@@@std@@YAPAV?$Point_@M@cv@@PAV12@00AAU?$_Wrap_alloc@V?$allocator@V?$Point_@M@cv@@@std@@@0@@Z 0041fec0 f i MainFile.obj
 0002:00009f60       ??$_Uninit_move@PAV?$Point_@M@cv@@PAV12@V?$allocator@V?$Point_@M@cv@@@std@@V12@@std@@YAPAV?$Point_@M@cv@@PAV12@00AAU?$_Wrap_alloc@V?$allocator@V?$Point_@M@cv@@@std@@@0@0U_Nonscalar_ptr_iterator_tag@0@@Z 0041ff60 f i MainFile.obj
 0002:0000a0a0       ??$_Uninit_move@PAV?$basic_string@DU?$char_traits@D@std@@V?$allocator@D@2@@std@@PAV12@U?$_Wrap_alloc@V?$allocator@V?$basic_string@DU?$char_traits@D@std@@V?$allocator@D@2@@std@@@std@@@2@@std@@YAPAV?$basic_string@DU?$char_traits@D@std@@V?$allocator@D@2@@0@PAV10@00AAU?$_Wrap_alloc@V?$allocator@V?$basic_string@DU?$char_traits@D@std@@V?$allocator@D@2@@std@@@std@@@0@@Z 004200a0 f i MainFile.obj
 0002:0000a140       ??$_Uninit_move@PAV?$basic_string@DU?$char_traits@D@std@@V?$allocator@D@2@@std@@PAV12@V?$allocator@V?$basic_string@DU?$char_traits@D@std@@V?$allocator@D@2@@std@@@2@V12@@std@@YAPAV?$basic_string@DU?$char_traits@D@std@@V?$allocator@D@2@@0@PAV10@00AAU?$_Wrap_alloc@V?$allocator@V?$basic_string@DU?$char_traits@D@std@@V?$allocator@D@2@@std@@@std@@@0@0U_Nonscalar_ptr_iterator_tag@0@@Z 00420140 f i MainFile.obj
 0002:0000a280       ??$_Uninit_move@PAV?$vector@V?$Point3_@M@cv@@V?$allocator@V?$Point3_@M@cv@@@std@@@std@@PAV12@U?$_Wrap_alloc@V?$allocator@V?$vector@V?$Point3_@M@cv@@V?$allocator@V?$Point3_@M@cv@@@std@@@std@@@std@@@2@@std@@YAPAV?$vector@V?$Point3_@M@cv@@V?$allocator@V?$Point3_@M@cv@@@std@@@0@PAV10@00AAU?$_Wrap_alloc@V?$allocator@V?$vector@V?$Point3_@M@cv@@V?$allocator@V?$Point3_@M@cv@@@std@@@std@@@std@@@0@@Z 00420280 f i MainFile.obj
 0002:0000a320       ??$_Uninit_move@PAV?$vector@V?$Point3_@M@cv@@V?$allocator@V?$Point3_@M@cv@@@std@@@std@@PAV12@V?$allocator@V?$vector@V?$Point3_@M@cv@@V?$allocator@V?$Point3_@M@cv@@@std@@@std@@@2@V12@@std@@YAPAV?$vector@V?$Point3_@M@cv@@V?$allocator@V?$Point3_@M@cv@@@std@@@0@PAV10@00AAU?$_Wrap_alloc@V?$allocator@V?$vector@V?$Point3_@M@cv@@V?$allocator@V?$Point3_@M@cv@@@std@@@std@@@std@@@0@0U_Nonscalar_ptr_iterator_tag@0@@Z 00420320 f i MainFile.obj
 0002:0000a460       ??$_Uninit_move@PAV?$vector@V?$Point_@M@cv@@V?$allocator@V?$Point_@M@cv@@@std@@@std@@PAV12@U?$_Wrap_alloc@V?$allocator@V?$vector@V?$Point_@M@cv@@V?$allocator@V?$Point_@M@cv@@@std@@@std@@@std@@@2@@std@@YAPAV?$vector@V?$Point_@M@cv@@V?$allocator@V?$Point_@M@cv@@@std@@@0@PAV10@00AAU?$_Wrap_alloc@V?$allocator@V?$vector@V?$Point_@M@cv@@V?$allocator@V?$Point_@M@cv@@@std@@@std@@@std@@@0@@Z 00420460 f i MainFile.obj
 0002:0000a500       ??$_Uninit_move@PAV?$vector@V?$Point_@M@cv@@V?$allocator@V?$Point_@M@cv@@@std@@@std@@PAV12@V?$allocator@V?$vector@V?$Point_@M@cv@@V?$allocator@V?$Point_@M@cv@@@std@@@std@@@2@V12@@std@@YAPAV?$vector@V?$Point_@M@cv@@V?$allocator@V?$Point_@M@cv@@@std@@@0@PAV10@00AAU?$_Wrap_alloc@V?$allocator@V?$vector@V?$Point_@M@cv@@V?$allocator@V?$Point_@M@cv@@@std@@@std@@@std@@@0@0U_Nonscalar_ptr_iterator_tag@0@@Z 00420500 f i MainFile.obj
 0002:0000a640       ??$_Uninitialized_default_fill_n@PAV?$basic_string@DU?$char_traits@D@std@@V?$allocator@D@2@@std@@IU?$_Wrap_alloc@V?$allocator@V?$basic_string@DU?$char_traits@D@std@@V?$allocator@D@2@@std@@@std@@@2@@std@@YAXPAV?$basic_string@DU?$char_traits@D@std@@V?$allocator@D@2@@0@IAAU?$_Wrap_alloc@V?$allocator@V?$basic_string@DU?$char_traits@D@std@@V?$allocator@D@2@@std@@@std@@@0@@Z 00420640 f i MainFile.obj
 0002:0000a6d0       ??$_Uninitialized_default_fill_n@PAV?$vector@V?$Point3_@M@cv@@V?$allocator@V?$Point3_@M@cv@@@std@@@std@@IU?$_Wrap_alloc@V?$allocator@V?$vector@V?$Point3_@M@cv@@V?$allocator@V?$Point3_@M@cv@@@std@@@std@@@std@@@2@@std@@YAXPAV?$vector@V?$Point3_@M@cv@@V?$allocator@V?$Point3_@M@cv@@@std@@@0@IAAU?$_Wrap_alloc@V?$allocator@V?$vector@V?$Point3_@M@cv@@V?$allocator@V?$Point3_@M@cv@@@std@@@std@@@std@@@0@@Z 004206d0 f i MainFile.obj
 0002:0000a760       ??$_Uninitialized_default_fill_n@PAV?$vector@V?$Point_@M@cv@@V?$allocator@V?$Point_@M@cv@@@std@@@std@@IU?$_Wrap_alloc@V?$allocator@V?$vector@V?$Point_@M@cv@@V?$allocator@V?$Point_@M@cv@@@std@@@std@@@std@@@2@@std@@YAXPAV?$vector@V?$Point_@M@cv@@V?$allocator@V?$Point_@M@cv@@@std@@@0@IAAU?$_Wrap_alloc@V?$allocator@V?$vector@V?$Point_@M@cv@@V?$allocator@V?$Point_@M@cv@@@std@@@std@@@std@@@0@@Z 00420760 f i MainFile.obj
 0002:0000a7f0       ??$_Uninitialized_move@PAV?$Point3_@M@cv@@PAV12@U?$_Wrap_alloc@V?$allocator@V?$Point3_@M@cv@@@std@@@std@@@std@@YAPAV?$Point3_@M@cv@@PAV12@00AAU?$_Wrap_alloc@V?$allocator@V?$Point3_@M@cv@@@std@@@0@@Z 004207f0 f i MainFile.obj
 0002:0000a890       ??$_Uninitialized_move@PAV?$Point_@M@cv@@PAV12@U?$_Wrap_alloc@V?$allocator@V?$Point_@M@cv@@@std@@@std@@@std@@YAPAV?$Point_@M@cv@@PAV12@00AAU?$_Wrap_alloc@V?$allocator@V?$Point_@M@cv@@@std@@@0@@Z 00420890 f i MainFile.obj
 0002:0000a930       ??$_Uninitialized_move@PAV?$basic_string@DU?$char_traits@D@std@@V?$allocator@D@2@@std@@PAV12@U?$_Wrap_alloc@V?$allocator@V?$basic_string@DU?$char_traits@D@std@@V?$allocator@D@2@@std@@@std@@@2@@std@@YAPAV?$basic_string@DU?$char_traits@D@std@@V?$allocator@D@2@@0@PAV10@00AAU?$_Wrap_alloc@V?$allocator@V?$basic_string@DU?$char_traits@D@std@@V?$allocator@D@2@@std@@@std@@@0@@Z 00420930 f i MainFile.obj
 0002:0000a9d0       ??$_Uninitialized_move@PAV?$vector@V?$Point3_@M@cv@@V?$allocator@V?$Point3_@M@cv@@@std@@@std@@PAV12@U?$_Wrap_alloc@V?$allocator@V?$vector@V?$Point3_@M@cv@@V?$allocator@V?$Point3_@M@cv@@@std@@@std@@@std@@@2@@std@@YAPAV?$vector@V?$Point3_@M@cv@@V?$allocator@V?$Point3_@M@cv@@@std@@@0@PAV10@00AAU?$_Wrap_alloc@V?$allocator@V?$vector@V?$Point3_@M@cv@@V?$allocator@V?$Point3_@M@cv@@@std@@@std@@@std@@@0@@Z 004209d0 f i MainFile.obj
 0002:0000aa70       ??$_Uninitialized_move@PAV?$vector@V?$Point_@M@cv@@V?$allocator@V?$Point_@M@cv@@@std@@@std@@PAV12@U?$_Wrap_alloc@V?$allocator@V?$vector@V?$Point_@M@cv@@V?$allocator@V?$Point_@M@cv@@@std@@@std@@@std@@@2@@std@@YAPAV?$vector@V?$Point_@M@cv@@V?$allocator@V?$Point_@M@cv@@@std@@@0@PAV10@00AAU?$_Wrap_alloc@V?$allocator@V?$vector@V?$Point_@M@cv@@V?$allocator@V?$Point_@M@cv@@@std@@@std@@@std@@@0@@Z 00420a70 f i MainFile.obj
 0002:0000ab10       ??$_Val_type@PAV?$Point3_@M@cv@@@std@@YAPAV?$Point3_@M@cv@@PAV12@@Z 00420b10 f i MainFile.obj
 0002:0000ab40       ??$_Val_type@PAV?$Point_@M@cv@@@std@@YAPAV?$Point_@M@cv@@PAV12@@Z 00420b40 f i MainFile.obj
 0002:0000ab70       ??$_Val_type@PAV?$basic_string@DU?$char_traits@D@std@@V?$allocator@D@2@@std@@@std@@YAPAV?$basic_string@DU?$char_traits@D@std@@V?$allocator@D@2@@0@PAV10@@Z 00420b70 f i MainFile.obj
 0002:0000aba0       ??$_Val_type@PAV?$vector@V?$Point3_@M@cv@@V?$allocator@V?$Point3_@M@cv@@@std@@@std@@@std@@YAPAV?$vector@V?$Point3_@M@cv@@V?$allocator@V?$Point3_@M@cv@@@std@@@0@PAV10@@Z 00420ba0 f i MainFile.obj
 0002:0000abd0       ??$_Val_type@PAV?$vector@V?$Point_@M@cv@@V?$allocator@V?$Point_@M@cv@@@std@@@std@@@std@@YAPAV?$vector@V?$Point_@M@cv@@V?$allocator@V?$Point_@M@cv@@@std@@@0@PAV10@@Z 00420bd0 f i MainFile.obj
 0002:0000ac00       ??$__vcrt_va_start_verify_argument_type@QBD@@YAXXZ 00420c00 f i MainFile.obj
 0002:0000ac30       ??$addressof@$$CBV?$Point_@M@cv@@@std@@YAPBV?$Point_@M@cv@@ABV12@@Z 00420c30 f i MainFile.obj
 0002:0000ac90       ??$addressof@$$CBV?$basic_string@DU?$char_traits@D@std@@V?$allocator@D@2@@std@@@std@@YAPBV?$basic_string@DU?$char_traits@D@std@@V?$allocator@D@2@@0@ABV10@@Z 00420c90 f i MainFile.obj
 0002:0000acf0       ??$addressof@D@std@@YAPADAAD@Z 00420cf0 f i MainFile.obj
 0002:0000ad50       ??$addressof@V?$Point3_@M@cv@@@std@@YAPAV?$Point3_@M@cv@@AAV12@@Z 00420d50 f i MainFile.obj
 0002:0000adb0       ??$addressof@V?$Point_@M@cv@@@std@@YAPAV?$Point_@M@cv@@AAV12@@Z 00420db0 f i MainFile.obj
 0002:0000ae10       ??$addressof@V?$Vec@M$02@cv@@@std@@YAPAV?$Vec@M$02@cv@@AAV12@@Z 00420e10 f i MainFile.obj
 0002:0000ae70       ??$addressof@V?$basic_string@DU?$char_traits@D@std@@V?$allocator@D@2@@std@@@std@@YAPAV?$basic_string@DU?$char_traits@D@std@@V?$allocator@D@2@@0@AAV10@@Z 00420e70 f i MainFile.obj
 0002:0000aed0       ??$addressof@V?$vector@V?$Point3_@M@cv@@V?$allocator@V?$Point3_@M@cv@@@std@@@std@@@std@@YAPAV?$vector@V?$Point3_@M@cv@@V?$allocator@V?$Point3_@M@cv@@@std@@@0@AAV10@@Z 00420ed0 f i MainFile.obj
 0002:0000af30       ??$addressof@V?$vector@V?$Point_@M@cv@@V?$allocator@V?$Point_@M@cv@@@std@@@std@@@std@@YAPAV?$vector@V?$Point_@M@cv@@V?$allocator@V?$Point_@M@cv@@@std@@@0@AAV10@@Z 00420f30 f i MainFile.obj
 0002:0000af90       ??$at@N@Mat@cv@@QAEAANHH@Z 00420f90 f i MainFile.obj
 0002:0000b110       ??$back_inserter@V?$vector@V?$Point_@M@cv@@V?$allocator@V?$Point_@M@cv@@@std@@@std@@@std@@YA?AV?$back_insert_iterator@V?$vector@V?$Point_@M@cv@@V?$allocator@V?$Point_@M@cv@@@std@@@std@@@0@AAV?$vector@V?$Point_@M@cv@@V?$allocator@V?$Point_@M@cv@@@std@@@0@@Z 00421110 f i MainFile.obj
 0002:0000b170       ??$construct@PADAAPAD@?$_Wrap_alloc@V?$allocator@D@std@@@std@@QAEXPAPADAAPAD@Z 00421170 f i MainFile.obj
 0002:0000b1e0       ??$construct@PADAAPAD@?$allocator@D@std@@QAEXPAPADAAPAD@Z 004211e0 f i MainFile.obj
 0002:0000b290       ??$construct@PADAAPAD@?$allocator_traits@V?$allocator@D@std@@@std@@SAXAAV?$allocator@D@1@PAPADAAPAD@Z 00421290 f i MainFile.obj
 0002:0000b2f0       ??$construct@U_Container_proxy@std@@U12@@?$_Wrap_alloc@V?$allocator@U_Container_proxy@std@@@std@@@std@@QAEXPAU_Container_proxy@1@$$QAU21@@Z 004212f0 f i MainFile.obj
 0002:0000b360       ??$construct@U_Container_proxy@std@@U12@@?$allocator@U_Container_proxy@std@@@std@@QAEXPAU_Container_proxy@1@$$QAU21@@Z 00421360 f i MainFile.obj
 0002:0000b410       ??$construct@U_Container_proxy@std@@U12@@?$allocator_traits@V?$allocator@U_Container_proxy@std@@@std@@@std@@SAXAAV?$allocator@U_Container_proxy@std@@@1@PAU_Container_proxy@1@$$QAU31@@Z 00421410 f i MainFile.obj
 0002:0000b470       ??$construct@V?$Point3_@M@cv@@V12@@?$_Wrap_alloc@V?$allocator@V?$Point3_@M@cv@@@std@@@std@@QAEXPAV?$Point3_@M@cv@@$$QAV23@@Z 00421470 f i MainFile.obj
 0002:0000b4e0       ??$construct@V?$Point3_@M@cv@@V12@@?$allocator@V?$Point3_@M@cv@@@std@@QAEXPAV?$Point3_@M@cv@@$$QAV23@@Z 004214e0 f i MainFile.obj
 0002:0000b5e0       ??$construct@V?$Point3_@M@cv@@V12@@?$allocator_traits@V?$allocator@V?$Point3_@M@cv@@@std@@@std@@SAXAAV?$allocator@V?$Point3_@M@cv@@@1@PAV?$Point3_@M@cv@@$$QAV34@@Z 004215e0 f i MainFile.obj
 0002:0000b640       ??$construct@V?$Point_@M@cv@@AAV12@@?$_Wrap_alloc@V?$allocator@V?$Point_@M@cv@@@std@@@std@@QAEXPAV?$Point_@M@cv@@AAV23@@Z 00421640 f i MainFile.obj
 0002:0000b6b0       ??$construct@V?$Point_@M@cv@@AAV12@@?$allocator@V?$Point_@M@cv@@@std@@QAEXPAV?$Point_@M@cv@@AAV23@@Z 004216b0 f i MainFile.obj
 0002:0000b7b0       ??$construct@V?$Point_@M@cv@@AAV12@@?$allocator_traits@V?$allocator@V?$Point_@M@cv@@@std@@@std@@SAXAAV?$allocator@V?$Point_@M@cv@@@1@PAV?$Point_@M@cv@@AAV34@@Z 004217b0 f i MainFile.obj
 0002:0000b810       ??$construct@V?$Point_@M@cv@@ABV12@@?$_Wrap_alloc@V?$allocator@V?$Point_@M@cv@@@std@@@std@@QAEXPAV?$Point_@M@cv@@ABV23@@Z 00421810 f i MainFile.obj
 0002:0000b880       ??$construct@V?$Point_@M@cv@@ABV12@@?$allocator@V?$Point_@M@cv@@@std@@QAEXPAV?$Point_@M@cv@@ABV23@@Z 00421880 f i MainFile.obj
 0002:0000b980       ??$construct@V?$Point_@M@cv@@ABV12@@?$allocator_traits@V?$allocator@V?$Point_@M@cv@@@std@@@std@@SAXAAV?$allocator@V?$Point_@M@cv@@@1@PAV?$Point_@M@cv@@ABV34@@Z 00421980 f i MainFile.obj
 0002:0000b9e0       ??$construct@V?$Point_@M@cv@@V12@@?$_Wrap_alloc@V?$allocator@V?$Point_@M@cv@@@std@@@std@@QAEXPAV?$Point_@M@cv@@$$QAV23@@Z 004219e0 f i MainFile.obj
 0002:0000ba50       ??$construct@V?$Point_@M@cv@@V12@@?$allocator@V?$Point_@M@cv@@@std@@QAEXPAV?$Point_@M@cv@@$$QAV23@@Z 00421a50 f i MainFile.obj
 0002:0000bb50       ??$construct@V?$Point_@M@cv@@V12@@?$allocator_traits@V?$allocator@V?$Point_@M@cv@@@std@@@std@@SAXAAV?$allocator@V?$Point_@M@cv@@@1@PAV?$Point_@M@cv@@$$QAV34@@Z 00421b50 f i MainFile.obj
 0002:0000bbb0       ??$construct@V?$basic_string@DU?$char_traits@D@std@@V?$allocator@D@2@@std@@$$V@?$_Wrap_alloc@V?$allocator@V?$basic_string@DU?$char_traits@D@std@@V?$allocator@D@2@@std@@@std@@@std@@QAEXPAV?$basic_string@DU?$char_traits@D@std@@V?$allocator@D@2@@1@@Z 00421bb0 f i MainFile.obj
 0002:0000bc10       ??$construct@V?$basic_string@DU?$char_traits@D@std@@V?$allocator@D@2@@std@@$$V@?$allocator@V?$basic_string@DU?$char_traits@D@std@@V?$allocator@D@2@@std@@@std@@QAEXPAV?$basic_string@DU?$char_traits@D@std@@V?$allocator@D@2@@1@@Z 00421c10 f i MainFile.obj
 0002:0000bca0       ??$construct@V?$basic_string@DU?$char_traits@D@std@@V?$allocator@D@2@@std@@$$V@?$allocator_traits@V?$allocator@V?$basic_string@DU?$char_traits@D@std@@V?$allocator@D@2@@std@@@std@@@std@@SAXAAV?$allocator@V?$basic_string@DU?$char_traits@D@std@@V?$allocator@D@2@@std@@@1@PAV?$basic_string@DU?$char_traits@D@std@@V?$allocator@D@2@@1@@Z 00421ca0 f i MainFile.obj
 0002:0000bcf0       ??$construct@V?$basic_string@DU?$char_traits@D@std@@V?$allocator@D@2@@std@@AAV12@@?$_Wrap_alloc@V?$allocator@V?$basic_string@DU?$char_traits@D@std@@V?$allocator@D@2@@std@@@std@@@std@@QAEXPAV?$basic_string@DU?$char_traits@D@std@@V?$allocator@D@2@@1@AAV21@@Z 00421cf0 f i MainFile.obj
 0002:0000bd60       ??$construct@V?$basic_string@DU?$char_traits@D@std@@V?$allocator@D@2@@std@@AAV12@@?$allocator@V?$basic_string@DU?$char_traits@D@std@@V?$allocator@D@2@@std@@@std@@QAEXPAV?$basic_string@DU?$char_traits@D@std@@V?$allocator@D@2@@1@AAV21@@Z 00421d60 f i MainFile.obj
 0002:0000be60       ??$construct@V?$basic_string@DU?$char_traits@D@std@@V?$allocator@D@2@@std@@AAV12@@?$allocator_traits@V?$allocator@V?$basic_string@DU?$char_traits@D@std@@V?$allocator@D@2@@std@@@std@@@std@@SAXAAV?$allocator@V?$basic_string@DU?$char_traits@D@std@@V?$allocator@D@2@@std@@@1@PAV?$basic_string@DU?$char_traits@D@std@@V?$allocator@D@2@@1@AAV31@@Z 00421e60 f i MainFile.obj
 0002:0000bec0       ??$construct@V?$basic_string@DU?$char_traits@D@std@@V?$allocator@D@2@@std@@ABV12@@?$_Wrap_alloc@V?$allocator@V?$basic_string@DU?$char_traits@D@std@@V?$allocator@D@2@@std@@@std@@@std@@QAEXPAV?$basic_string@DU?$char_traits@D@std@@V?$allocator@D@2@@1@ABV21@@Z 00421ec0 f i MainFile.obj
 0002:0000bf30       ??$construct@V?$basic_string@DU?$char_traits@D@std@@V?$allocator@D@2@@std@@ABV12@@?$allocator@V?$basic_string@DU?$char_traits@D@std@@V?$allocator@D@2@@std@@@std@@QAEXPAV?$basic_string@DU?$char_traits@D@std@@V?$allocator@D@2@@1@ABV21@@Z 00421f30 f i MainFile.obj
 0002:0000c030       ??$construct@V?$basic_string@DU?$char_traits@D@std@@V?$allocator@D@2@@std@@ABV12@@?$allocator_traits@V?$allocator@V?$basic_string@DU?$char_traits@D@std@@V?$allocator@D@2@@std@@@std@@@std@@SAXAAV?$allocator@V?$basic_string@DU?$char_traits@D@std@@V?$allocator@D@2@@std@@@1@PAV?$basic_string@DU?$char_traits@D@std@@V?$allocator@D@2@@1@ABV31@@Z 00422030 f i MainFile.obj
 0002:0000c090       ??$construct@V?$basic_string@DU?$char_traits@D@std@@V?$allocator@D@2@@std@@V12@@?$_Wrap_alloc@V?$allocator@V?$basic_string@DU?$char_traits@D@std@@V?$allocator@D@2@@std@@@std@@@std@@QAEXPAV?$basic_string@DU?$char_traits@D@std@@V?$allocator@D@2@@1@$$QAV21@@Z 00422090 f i MainFile.obj
 0002:0000c100       ??$construct@V?$basic_string@DU?$char_traits@D@std@@V?$allocator@D@2@@std@@V12@@?$allocator@V?$basic_string@DU?$char_traits@D@std@@V?$allocator@D@2@@std@@@std@@QAEXPAV?$basic_string@DU?$char_traits@D@std@@V?$allocator@D@2@@1@$$QAV21@@Z 00422100 f i MainFile.obj
 0002:0000c1a0       ??$construct@V?$basic_string@DU?$char_traits@D@std@@V?$allocator@D@2@@std@@V12@@?$allocator_traits@V?$allocator@V?$basic_string@DU?$char_traits@D@std@@V?$allocator@D@2@@std@@@std@@@std@@SAXAAV?$allocator@V?$basic_string@DU?$char_traits@D@std@@V?$allocator@D@2@@std@@@1@PAV?$basic_string@DU?$char_traits@D@std@@V?$allocator@D@2@@1@$$QAV31@@Z 004221a0 f i MainFile.obj
 0002:0000c200       ??$construct@V?$vector@V?$Point3_@M@cv@@V?$allocator@V?$Point3_@M@cv@@@std@@@std@@$$V@?$_Wrap_alloc@V?$allocator@V?$vector@V?$Point3_@M@cv@@V?$allocator@V?$Point3_@M@cv@@@std@@@std@@@std@@@std@@QAEXPAV?$vector@V?$Point3_@M@cv@@V?$allocator@V?$Point3_@M@cv@@@std@@@1@@Z 00422200 f i MainFile.obj
 0002:0000c260       ??$construct@V?$vector@V?$Point3_@M@cv@@V?$allocator@V?$Point3_@M@cv@@@std@@@std@@$$V@?$allocator@V?$vector@V?$Point3_@M@cv@@V?$allocator@V?$Point3_@M@cv@@@std@@@std@@@std@@QAEXPAV?$vector@V?$Point3_@M@cv@@V?$allocator@V?$Point3_@M@cv@@@std@@@1@@Z 00422260 f i MainFile.obj
 0002:0000c2f0       ??$construct@V?$vector@V?$Point3_@M@cv@@V?$allocator@V?$Point3_@M@cv@@@std@@@std@@$$V@?$allocator_traits@V?$allocator@V?$vector@V?$Point3_@M@cv@@V?$allocator@V?$Point3_@M@cv@@@std@@@std@@@std@@@std@@SAXAAV?$allocator@V?$vector@V?$Point3_@M@cv@@V?$allocator@V?$Point3_@M@cv@@@std@@@std@@@1@PAV?$vector@V?$Point3_@M@cv@@V?$allocator@V?$Point3_@M@cv@@@std@@@1@@Z 004222f0 f i MainFile.obj
 0002:0000c340       ??$construct@V?$vector@V?$Point3_@M@cv@@V?$allocator@V?$Point3_@M@cv@@@std@@@std@@V12@@?$_Wrap_alloc@V?$allocator@V?$vector@V?$Point3_@M@cv@@V?$allocator@V?$Point3_@M@cv@@@std@@@std@@@std@@@std@@QAEXPAV?$vector@V?$Point3_@M@cv@@V?$allocator@V?$Point3_@M@cv@@@std@@@1@$$QAV21@@Z 00422340 f i MainFile.obj
 0002:0000c3b0       ??$construct@V?$vector@V?$Point3_@M@cv@@V?$allocator@V?$Point3_@M@cv@@@std@@@std@@V12@@?$allocator@V?$vector@V?$Point3_@M@cv@@V?$allocator@V?$Point3_@M@cv@@@std@@@std@@@std@@QAEXPAV?$vector@V?$Point3_@M@cv@@V?$allocator@V?$Point3_@M@cv@@@std@@@1@$$QAV21@@Z 004223b0 f i MainFile.obj
 0002:0000c450       ??$construct@V?$vector@V?$Point3_@M@cv@@V?$allocator@V?$Point3_@M@cv@@@std@@@std@@V12@@?$allocator_traits@V?$allocator@V?$vector@V?$Point3_@M@cv@@V?$allocator@V?$Point3_@M@cv@@@std@@@std@@@std@@@std@@SAXAAV?$allocator@V?$vector@V?$Point3_@M@cv@@V?$allocator@V?$Point3_@M@cv@@@std@@@std@@@1@PAV?$vector@V?$Point3_@M@cv@@V?$allocator@V?$Point3_@M@cv@@@std@@@1@$$QAV31@@Z 00422450 f i MainFile.obj
 0002:0000c4b0       ??$construct@V?$vector@V?$Point_@M@cv@@V?$allocator@V?$Point_@M@cv@@@std@@@std@@$$V@?$_Wrap_alloc@V?$allocator@V?$vector@V?$Point_@M@cv@@V?$allocator@V?$Point_@M@cv@@@std@@@std@@@std@@@std@@QAEXPAV?$vector@V?$Point_@M@cv@@V?$allocator@V?$Point_@M@cv@@@std@@@1@@Z 004224b0 f i MainFile.obj
 0002:0000c510       ??$construct@V?$vector@V?$Point_@M@cv@@V?$allocator@V?$Point_@M@cv@@@std@@@std@@$$V@?$allocator@V?$vector@V?$Point_@M@cv@@V?$allocator@V?$Point_@M@cv@@@std@@@std@@@std@@QAEXPAV?$vector@V?$Point_@M@cv@@V?$allocator@V?$Point_@M@cv@@@std@@@1@@Z 00422510 f i MainFile.obj
 0002:0000c5a0       ??$construct@V?$vector@V?$Point_@M@cv@@V?$allocator@V?$Point_@M@cv@@@std@@@std@@$$V@?$allocator_traits@V?$allocator@V?$vector@V?$Point_@M@cv@@V?$allocator@V?$Point_@M@cv@@@std@@@std@@@std@@@std@@SAXAAV?$allocator@V?$vector@V?$Point_@M@cv@@V?$allocator@V?$Point_@M@cv@@@std@@@std@@@1@PAV?$vector@V?$Point_@M@cv@@V?$allocator@V?$Point_@M@cv@@@std@@@1@@Z 004225a0 f i MainFile.obj
 0002:0000c5f0       ??$construct@V?$vector@V?$Point_@M@cv@@V?$allocator@V?$Point_@M@cv@@@std@@@std@@V12@@?$_Wrap_alloc@V?$allocator@V?$vector@V?$Point_@M@cv@@V?$allocator@V?$Point_@M@cv@@@std@@@std@@@std@@@std@@QAEXPAV?$vector@V?$Point_@M@cv@@V?$allocator@V?$Point_@M@cv@@@std@@@1@$$QAV21@@Z 004225f0 f i MainFile.obj
 0002:0000c660       ??$construct@V?$vector@V?$Point_@M@cv@@V?$allocator@V?$Point_@M@cv@@@std@@@std@@V12@@?$allocator@V?$vector@V?$Point_@M@cv@@V?$allocator@V?$Point_@M@cv@@@std@@@std@@@std@@QAEXPAV?$vector@V?$Point_@M@cv@@V?$allocator@V?$Point_@M@cv@@@std@@@1@$$QAV21@@Z 00422660 f i MainFile.obj
 0002:0000c700       ??$construct@V?$vector@V?$Point_@M@cv@@V?$allocator@V?$Point_@M@cv@@@std@@@std@@V12@@?$allocator_traits@V?$allocator@V?$vector@V?$Point_@M@cv@@V?$allocator@V?$Point_@M@cv@@@std@@@std@@@std@@@std@@SAXAAV?$allocator@V?$vector@V?$Point_@M@cv@@V?$allocator@V?$Point_@M@cv@@@std@@@std@@@1@PAV?$vector@V?$Point_@M@cv@@V?$allocator@V?$Point_@M@cv@@@std@@@1@$$QAV31@@Z 00422700 f i MainFile.obj
 0002:0000c760       ??$copy@V?$_Vector_iterator@V?$_Vector_val@U?$_Simple_types@V?$Point_@M@cv@@@std@@@std@@@std@@V?$back_insert_iterator@V?$vector@V?$Point_@M@cv@@V?$allocator@V?$Point_@M@cv@@@std@@@std@@@2@@std@@YA?AV?$back_insert_iterator@V?$vector@V?$Point_@M@cv@@V?$allocator@V?$Point_@M@cv@@@std@@@std@@@0@V?$_Vector_iterator@V?$_Vector_val@U?$_Simple_types@V?$Point_@M@cv@@@std@@@std@@@0@0V10@@Z 00422760 f i MainFile.obj
 0002:0000c920       ??$destroy@PAD@?$_Wrap_alloc@V?$allocator@D@std@@@std@@QAEXPAPAD@Z 00422920 f i MainFile.obj
 0002:0000c980       ??$destroy@PAD@?$allocator@D@std@@QAEXPAPAD@Z 00422980 f i MainFile.obj
 0002:0000c9c0       ??$destroy@PAD@?$allocator_traits@V?$allocator@D@std@@@std@@SAXAAV?$allocator@D@1@PAPAD@Z 004229c0 f i MainFile.obj
 0002:0000ca10       ??$destroy@U_Container_proxy@std@@@?$_Wrap_alloc@V?$allocator@U_Container_proxy@std@@@std@@@std@@QAEXPAU_Container_proxy@1@@Z 00422a10 f i MainFile.obj
 0002:0000ca70       ??$destroy@U_Container_proxy@std@@@?$allocator@U_Container_proxy@std@@@std@@QAEXPAU_Container_proxy@1@@Z 00422a70 f i MainFile.obj
 0002:0000cab0       ??$destroy@U_Container_proxy@std@@@?$allocator_traits@V?$allocator@U_Container_proxy@std@@@std@@@std@@SAXAAV?$allocator@U_Container_proxy@std@@@1@PAU_Container_proxy@1@@Z 00422ab0 f i MainFile.obj
 0002:0000cb00       ??$destroy@V?$Point3_@M@cv@@@?$_Wrap_alloc@V?$allocator@V?$Point3_@M@cv@@@std@@@std@@QAEXPAV?$Point3_@M@cv@@@Z 00422b00 f i MainFile.obj
 0002:0000cb60       ??$destroy@V?$Point3_@M@cv@@@?$allocator@V?$Point3_@M@cv@@@std@@QAEXPAV?$Point3_@M@cv@@@Z 00422b60 f i MainFile.obj
 0002:0000cba0       ??$destroy@V?$Point3_@M@cv@@@?$allocator_traits@V?$allocator@V?$Point3_@M@cv@@@std@@@std@@SAXAAV?$allocator@V?$Point3_@M@cv@@@1@PAV?$Point3_@M@cv@@@Z 00422ba0 f i MainFile.obj
 0002:0000cbf0       ??$destroy@V?$Point_@M@cv@@@?$_Wrap_alloc@V?$allocator@V?$Point_@M@cv@@@std@@@std@@QAEXPAV?$Point_@M@cv@@@Z 00422bf0 f i MainFile.obj
 0002:0000cc50       ??$destroy@V?$Point_@M@cv@@@?$allocator@V?$Point_@M@cv@@@std@@QAEXPAV?$Point_@M@cv@@@Z 00422c50 f i MainFile.obj
 0002:0000cc90       ??$destroy@V?$Point_@M@cv@@@?$allocator_traits@V?$allocator@V?$Point_@M@cv@@@std@@@std@@SAXAAV?$allocator@V?$Point_@M@cv@@@1@PAV?$Point_@M@cv@@@Z 00422c90 f i MainFile.obj
 0002:0000cce0       ??$destroy@V?$Vec@M$02@cv@@@?$_Wrap_alloc@V?$allocator@V?$Vec@M$02@cv@@@std@@@std@@QAEXPAV?$Vec@M$02@cv@@@Z 00422ce0 f i MainFile.obj
 0002:0000cd40       ??$destroy@V?$Vec@M$02@cv@@@?$allocator@V?$Vec@M$02@cv@@@std@@QAEXPAV?$Vec@M$02@cv@@@Z 00422d40 f i MainFile.obj
 0002:0000cd80       ??$destroy@V?$Vec@M$02@cv@@@?$allocator_traits@V?$allocator@V?$Vec@M$02@cv@@@std@@@std@@SAXAAV?$allocator@V?$Vec@M$02@cv@@@1@PAV?$Vec@M$02@cv@@@Z 00422d80 f i MainFile.obj
 0002:0000cdd0       ??$destroy@V?$basic_string@DU?$char_traits@D@std@@V?$allocator@D@2@@std@@@?$_Wrap_alloc@V?$allocator@V?$basic_string@DU?$char_traits@D@std@@V?$allocator@D@2@@std@@@std@@@std@@QAEXPAV?$basic_string@DU?$char_traits@D@std@@V?$allocator@D@2@@1@@Z 00422dd0 f i MainFile.obj
 0002:0000ce30       ??$destroy@V?$basic_string@DU?$char_traits@D@std@@V?$allocator@D@2@@std@@@?$allocator@V?$basic_string@DU?$char_traits@D@std@@V?$allocator@D@2@@std@@@std@@QAEXPAV?$basic_string@DU?$char_traits@D@std@@V?$allocator@D@2@@1@@Z 00422e30 f i MainFile.obj
 0002:0000ce90       ??$destroy@V?$basic_string@DU?$char_traits@D@std@@V?$allocator@D@2@@std@@@?$allocator_traits@V?$allocator@V?$basic_string@DU?$char_traits@D@std@@V?$allocator@D@2@@std@@@std@@@std@@SAXAAV?$allocator@V?$basic_string@DU?$char_traits@D@std@@V?$allocator@D@2@@std@@@1@PAV?$basic_string@DU?$char_traits@D@std@@V?$allocator@D@2@@1@@Z 00422e90 f i MainFile.obj
 0002:0000cee0       ??$destroy@V?$vector@V?$Point3_@M@cv@@V?$allocator@V?$Point3_@M@cv@@@std@@@std@@@?$_Wrap_alloc@V?$allocator@V?$vector@V?$Point3_@M@cv@@V?$allocator@V?$Point3_@M@cv@@@std@@@std@@@std@@@std@@QAEXPAV?$vector@V?$Point3_@M@cv@@V?$allocator@V?$Point3_@M@cv@@@std@@@1@@Z 00422ee0 f i MainFile.obj
 0002:0000cf40       ??$destroy@V?$vector@V?$Point3_@M@cv@@V?$allocator@V?$Point3_@M@cv@@@std@@@std@@@?$allocator@V?$vector@V?$Point3_@M@cv@@V?$allocator@V?$Point3_@M@cv@@@std@@@std@@@std@@QAEXPAV?$vector@V?$Point3_@M@cv@@V?$allocator@V?$Point3_@M@cv@@@std@@@1@@Z 00422f40 f i MainFile.obj
 0002:0000cfa0       ??$destroy@V?$vector@V?$Point3_@M@cv@@V?$allocator@V?$Point3_@M@cv@@@std@@@std@@@?$allocator_traits@V?$allocator@V?$vector@V?$Point3_@M@cv@@V?$allocator@V?$Point3_@M@cv@@@std@@@std@@@std@@@std@@SAXAAV?$allocator@V?$vector@V?$Point3_@M@cv@@V?$allocator@V?$Point3_@M@cv@@@std@@@std@@@1@PAV?$vector@V?$Point3_@M@cv@@V?$allocator@V?$Point3_@M@cv@@@std@@@1@@Z 00422fa0 f i MainFile.obj
 0002:0000cff0       ??$destroy@V?$vector@V?$Point_@M@cv@@V?$allocator@V?$Point_@M@cv@@@std@@@std@@@?$_Wrap_alloc@V?$allocator@V?$vector@V?$Point_@M@cv@@V?$allocator@V?$Point_@M@cv@@@std@@@std@@@std@@@std@@QAEXPAV?$vector@V?$Point_@M@cv@@V?$allocator@V?$Point_@M@cv@@@std@@@1@@Z 00422ff0 f i MainFile.obj
 0002:0000d050       ??$destroy@V?$vector@V?$Point_@M@cv@@V?$allocator@V?$Point_@M@cv@@@std@@@std@@@?$allocator@V?$vector@V?$Point_@M@cv@@V?$allocator@V?$Point_@M@cv@@@std@@@std@@@std@@QAEXPAV?$vector@V?$Point_@M@cv@@V?$allocator@V?$Point_@M@cv@@@std@@@1@@Z 00423050 f i MainFile.obj
 0002:0000d0b0       ??$destroy@V?$vector@V?$Point_@M@cv@@V?$allocator@V?$Point_@M@cv@@@std@@@std@@@?$allocator_traits@V?$allocator@V?$vector@V?$Point_@M@cv@@V?$allocator@V?$Point_@M@cv@@@std@@@std@@@std@@@std@@SAXAAV?$allocator@V?$vector@V?$Point_@M@cv@@V?$allocator@V?$Point_@M@cv@@@std@@@std@@@1@PAV?$vector@V?$Point_@M@cv@@V?$allocator@V?$Point_@M@cv@@@std@@@1@@Z 004230b0 f i MainFile.obj
 0002:0000d100       ??$endl@DU?$char_traits@D@std@@@std@@YAAAV?$basic_ostream@DU?$char_traits@D@std@@@0@AAV10@@Z 00423100 f i MainFile.obj
 0002:0000d1a0       ??$forward@AAPAD@std@@YAAAPADAAPAD@Z 004231a0 f i MainFile.obj
 0002:0000d1e0       ??$forward@AAV?$Point_@M@cv@@@std@@YAAAV?$Point_@M@cv@@AAV12@@Z 004231e0 f i MainFile.obj
 0002:0000d220       ??$forward@AAV?$basic_string@DU?$char_traits@D@std@@V?$allocator@D@2@@std@@@std@@YAAAV?$basic_string@DU?$char_traits@D@std@@V?$allocator@D@2@@0@AAV10@@Z 00423220 f i MainFile.obj
 0002:0000d260       ??$forward@ABV?$Point_@M@cv@@@std@@YAABV?$Point_@M@cv@@ABV12@@Z 00423260 f i MainFile.obj
 0002:0000d2a0       ??$forward@ABV?$allocator@D@std@@@std@@YAABV?$allocator@D@0@ABV10@@Z 004232a0 f i MainFile.obj
 0002:0000d2e0       ??$forward@ABV?$allocator@V?$Point3_@M@cv@@@std@@@std@@YAABV?$allocator@V?$Point3_@M@cv@@@0@ABV10@@Z 004232e0 f i MainFile.obj
 0002:0000d320       ??$forward@ABV?$allocator@V?$Point_@M@cv@@@std@@@std@@YAABV?$allocator@V?$Point_@M@cv@@@0@ABV10@@Z 00423320 f i MainFile.obj
 0002:0000d360       ??$forward@ABV?$allocator@V?$Vec@M$02@cv@@@std@@@std@@YAABV?$allocator@V?$Vec@M$02@cv@@@0@ABV10@@Z 00423360 f i MainFile.obj
 0002:0000d3a0       ??$forward@ABV?$allocator@V?$basic_string@DU?$char_traits@D@std@@V?$allocator@D@2@@std@@@std@@@std@@YAABV?$allocator@V?$basic_string@DU?$char_traits@D@std@@V?$allocator@D@2@@std@@@0@ABV10@@Z 004233a0 f i MainFile.obj
 0002:0000d3e0       ??$forward@ABV?$allocator@V?$vector@V?$Point3_@M@cv@@V?$allocator@V?$Point3_@M@cv@@@std@@@std@@@std@@@std@@YAABV?$allocator@V?$vector@V?$Point3_@M@cv@@V?$allocator@V?$Point3_@M@cv@@@std@@@std@@@0@ABV10@@Z 004233e0 f i MainFile.obj
 0002:0000d420       ??$forward@ABV?$allocator@V?$vector@V?$Point_@M@cv@@V?$allocator@V?$Point_@M@cv@@@std@@@std@@@std@@@std@@YAABV?$allocator@V?$vector@V?$Point_@M@cv@@V?$allocator@V?$Point_@M@cv@@@std@@@std@@@0@ABV10@@Z 00423420 f i MainFile.obj
 0002:0000d460       ??$forward@ABV?$basic_string@DU?$char_traits@D@std@@V?$allocator@D@2@@std@@@std@@YAABV?$basic_string@DU?$char_traits@D@std@@V?$allocator@D@2@@0@ABV10@@Z 00423460 f i MainFile.obj
 0002:0000d4a0       ??$forward@U_Container_proxy@std@@@std@@YA$$QAU_Container_proxy@0@AAU10@@Z 004234a0 f i MainFile.obj
 0002:0000d4e0       ??$forward@V?$Point3_@M@cv@@@std@@YA$$QAV?$Point3_@M@cv@@AAV12@@Z 004234e0 f i MainFile.obj
 0002:0000d520       ??$forward@V?$Point_@M@cv@@@std@@YA$$QAV?$Point_@M@cv@@AAV12@@Z 00423520 f i MainFile.obj
 0002:0000d560       ??$forward@V?$allocator@D@std@@@std@@YA$$QAV?$allocator@D@0@AAV10@@Z 00423560 f i MainFile.obj
 0002:0000d5a0       ??$forward@V?$allocator@V?$Point3_@M@cv@@@std@@@std@@YA$$QAV?$allocator@V?$Point3_@M@cv@@@0@AAV10@@Z 004235a0 f i MainFile.obj
 0002:0000d5e0       ??$forward@V?$allocator@V?$Point_@M@cv@@@std@@@std@@YA$$QAV?$allocator@V?$Point_@M@cv@@@0@AAV10@@Z 004235e0 f i MainFile.obj
 0002:0000d620       ??$forward@V?$basic_string@DU?$char_traits@D@std@@V?$allocator@D@2@@std@@@std@@YA$$QAV?$basic_string@DU?$char_traits@D@std@@V?$allocator@D@2@@0@AAV10@@Z 00423620 f i MainFile.obj
 0002:0000d660       ??$forward@V?$vector@V?$Point3_@M@cv@@V?$allocator@V?$Point3_@M@cv@@@std@@@std@@@std@@YA$$QAV?$vector@V?$Point3_@M@cv@@V?$allocator@V?$Point3_@M@cv@@@std@@@0@AAV10@@Z 00423660 f i MainFile.obj
 0002:0000d6a0       ??$forward@V?$vector@V?$Point_@M@cv@@V?$allocator@V?$Point_@M@cv@@@std@@@std@@@std@@YA$$QAV?$vector@V?$Point_@M@cv@@V?$allocator@V?$Point_@M@cv@@@std@@@0@AAV10@@Z 004236a0 f i MainFile.obj
 0002:0000d6e0       ??$move@AAU?$_Wrap_alloc@V?$allocator@D@std@@@std@@@std@@YA$$QAU?$_Wrap_alloc@V?$allocator@D@std@@@0@AAU10@@Z 004236e0 f i MainFile.obj
 0002:0000d720       ??$move@AAU?$_Wrap_alloc@V?$allocator@V?$Point3_@M@cv@@@std@@@std@@@std@@YA$$QAU?$_Wrap_alloc@V?$allocator@V?$Point3_@M@cv@@@std@@@0@AAU10@@Z 00423720 f i MainFile.obj
 0002:0000d760       ??$move@AAU?$_Wrap_alloc@V?$allocator@V?$Point_@M@cv@@@std@@@std@@@std@@YA$$QAU?$_Wrap_alloc@V?$allocator@V?$Point_@M@cv@@@std@@@0@AAU10@@Z 00423760 f i MainFile.obj
 0002:0000d7a0       ??$move@AAV?$allocator@D@std@@@std@@YA$$QAV?$allocator@D@0@AAV10@@Z 004237a0 f i MainFile.obj
 0002:0000d7e0       ??$move@AAV?$allocator@V?$Point3_@M@cv@@@std@@@std@@YA$$QAV?$allocator@V?$Point3_@M@cv@@@0@AAV10@@Z 004237e0 f i MainFile.obj
 0002:0000d820       ??$move@AAV?$allocator@V?$Point_@M@cv@@@std@@@std@@YA$$QAV?$allocator@V?$Point_@M@cv@@@0@AAV10@@Z 00423820 f i MainFile.obj
 0002:0000d860       ??$swap@PAUCvCapture@@@std@@YAXAAPAUCvCapture@@0@Z 00423860 f i MainFile.obj
 0002:0000d940       ??$swap@PAUPtrOwner@detail@cv@@@std@@YAXAAPAUPtrOwner@detail@cv@@0@Z 00423940 f i MainFile.obj
 0002:0000da20       ??$swap@PAVIVideoCapture@cv@@@std@@YAXAAPAVIVideoCapture@cv@@0@Z 00423a20 f i MainFile.obj
 0002:0000db00       ??0?$Matx@N$03$00@cv@@QAE@XZ 00423b00 f i MainFile.obj
 0002:0000db70       ??0?$Point3_@M@cv@@QAE@ABV01@@Z 00423b70 f i MainFile.obj
 0002:0000dbe0       ??0?$Point3_@M@cv@@QAE@MMM@Z 00423be0 f i MainFile.obj
 0002:0000dc50       ??0?$Point_@H@cv@@QAE@HH@Z 00423c50 f i MainFile.obj
 0002:0000dca0       ??0?$Point_@M@cv@@QAE@ABV01@@Z 00423ca0 f i MainFile.obj
 0002:0000dd00       ??0?$Ptr@UCvCapture@@@cv@@QAE@ABU01@@Z 00423d00 f i MainFile.obj
 0002:0000dd80       ??0?$Ptr@VIVideoCapture@cv@@@cv@@QAE@ABU01@@Z 00423d80 f i MainFile.obj
 0002:0000de00       ??0?$Rect_@H@cv@@QAE@ABV01@@Z 00423e00 f i MainFile.obj
 0002:0000de80       ??0?$Rect_@H@cv@@QAE@HHHH@Z 00423e80 f i MainFile.obj
 0002:0000def0       ??0?$Rect_@H@cv@@QAE@XZ    00423ef0 f i MainFile.obj
 0002:0000df60       ??0?$Scalar_@N@cv@@QAE@NNNN@Z 00423f60 f i MainFile.obj
 0002:0000e020       ??0?$Scalar_@N@cv@@QAE@XZ  00424020 f i MainFile.obj
 0002:0000e0f0       ??0?$Size_@H@cv@@QAE@ABV01@@Z 004240f0 f i MainFile.obj
 0002:0000e150       ??0?$Size_@H@cv@@QAE@HH@Z  00424150 f i MainFile.obj
 0002:0000e1a0       ??0?$Size_@H@cv@@QAE@XZ    004241a0 f i MainFile.obj
 0002:0000e1f0       ??0?$Vec@N$03@cv@@QAE@XZ   004241f0 f i MainFile.obj
 0002:0000e250       ??0?$_Iterator012@Urandom_access_iterator_tag@std@@V?$Point_@M@cv@@HPBV34@ABV34@U_Iterator_base12@2@@std@@QAE@ABU01@@Z 00424250 f i MainFile.obj
 0002:0000e2b0       ??0?$_Iterator012@Urandom_access_iterator_tag@std@@V?$Point_@M@cv@@HPBV34@ABV34@U_Iterator_base12@2@@std@@QAE@XZ 004242b0 f i MainFile.obj
 0002:0000e310       ??0?$_String_alloc@U?$_String_base_types@DV?$allocator@D@std@@@std@@@std@@QAE@$$QAV?$allocator@D@1@@Z 00424310 f i MainFile.obj
 0002:0000e3d0       ??0?$_String_alloc@U?$_String_base_types@DV?$allocator@D@std@@@std@@@std@@QAE@ABV?$allocator@D@1@@Z 004243d0 f i MainFile.obj
 0002:0000e490       ??0?$_String_val@U?$_Simple_types@D@std@@@std@@QAE@XZ 00424490 f i MainFile.obj
 0002:0000e500       ??0?$_Vector_alloc@U?$_Vec_base_types@V?$Point3_@M@cv@@V?$allocator@V?$Point3_@M@cv@@@std@@@std@@@std@@QAE@$$QAV?$allocator@V?$Point3_@M@cv@@@1@@Z 00424500 f i MainFile.obj
 0002:0000e5c0       ??0?$_Vector_alloc@U?$_Vec_base_types@V?$Point3_@M@cv@@V?$allocator@V?$Point3_@M@cv@@@std@@@std@@@std@@QAE@ABV?$allocator@V?$Point3_@M@cv@@@1@@Z 004245c0 f i MainFile.obj
 0002:0000e680       ??0?$_Vector_alloc@U?$_Vec_base_types@V?$Point_@M@cv@@V?$allocator@V?$Point_@M@cv@@@std@@@std@@@std@@QAE@$$QAV?$allocator@V?$Point_@M@cv@@@1@@Z 00424680 f i MainFile.obj
 0002:0000e740       ??0?$_Vector_alloc@U?$_Vec_base_types@V?$Point_@M@cv@@V?$allocator@V?$Point_@M@cv@@@std@@@std@@@std@@QAE@ABV?$allocator@V?$Point_@M@cv@@@1@@Z 00424740 f i MainFile.obj
 0002:0000e800       ??0?$_Vector_alloc@U?$_Vec_base_types@V?$Vec@M$02@cv@@V?$allocator@V?$Vec@M$02@cv@@@std@@@std@@@std@@QAE@ABV?$allocator@V?$Vec@M$02@cv@@@1@@Z 00424800 f i MainFile.obj
 0002:0000e8c0       ??0?$_Vector_alloc@U?$_Vec_base_types@V?$basic_string@DU?$char_traits@D@std@@V?$allocator@D@2@@std@@V?$allocator@V?$basic_string@DU?$char_traits@D@std@@V?$allocator@D@2@@std@@@2@@std@@@std@@QAE@ABV?$allocator@V?$basic_string@DU?$char_traits@D@std@@V?$allocator@D@2@@std@@@1@@Z 004248c0 f i MainFile.obj
 0002:0000e980       ??0?$_Vector_alloc@U?$_Vec_base_types@V?$vector@V?$Point3_@M@cv@@V?$allocator@V?$Point3_@M@cv@@@std@@@std@@V?$allocator@V?$vector@V?$Point3_@M@cv@@V?$allocator@V?$Point3_@M@cv@@@std@@@std@@@2@@std@@@std@@QAE@ABV?$allocator@V?$vector@V?$Point3_@M@cv@@V?$allocator@V?$Point3_@M@cv@@@std@@@std@@@1@@Z 00424980 f i MainFile.obj
 0002:0000ea40       ??0?$_Vector_alloc@U?$_Vec_base_types@V?$vector@V?$Point_@M@cv@@V?$allocator@V?$Point_@M@cv@@@std@@@std@@V?$allocator@V?$vector@V?$Point_@M@cv@@V?$allocator@V?$Point_@M@cv@@@std@@@std@@@2@@std@@@std@@QAE@ABV?$allocator@V?$vector@V?$Point_@M@cv@@V?$allocator@V?$Point_@M@cv@@@std@@@std@@@1@@Z 00424a40 f i MainFile.obj
 0002:0000eb00       ??0?$_Vector_const_iterator@V?$_Vector_val@U?$_Simple_types@V?$Point_@M@cv@@@std@@@std@@@std@@QAE@ABV01@@Z 00424b00 f i MainFile.obj
 0002:0000eb70       ??0?$_Vector_const_iterator@V?$_Vector_val@U?$_Simple_types@V?$Point_@M@cv@@@std@@@std@@@std@@QAE@PAV?$Point_@M@cv@@PBU_Container_base12@1@@Z 00424b70 f i MainFile.obj
 0002:0000ec30       ??0?$_Vector_iterator@V?$_Vector_val@U?$_Simple_types@V?$Point_@M@cv@@@std@@@std@@@std@@QAE@ABV01@@Z 00424c30 f i MainFile.obj
 0002:0000ec90       ??0?$_Vector_iterator@V?$_Vector_val@U?$_Simple_types@V?$Point_@M@cv@@@std@@@std@@@std@@QAE@PAV?$Point_@M@cv@@PBU_Container_base12@1@@Z 00424c90 f i MainFile.obj
 0002:0000ecf0       ??0?$_Vector_val@U?$_Simple_types@V?$Point3_@M@cv@@@std@@@std@@QAE@XZ 00424cf0 f i MainFile.obj
 0002:0000ed70       ??0?$_Vector_val@U?$_Simple_types@V?$Point_@M@cv@@@std@@@std@@QAE@XZ 00424d70 f i MainFile.obj
 0002:0000edf0       ??0?$_Vector_val@U?$_Simple_types@V?$Vec@M$02@cv@@@std@@@std@@QAE@XZ 00424df0 f i MainFile.obj
 0002:0000ee70       ??0?$_Vector_val@U?$_Simple_types@V?$basic_string@DU?$char_traits@D@std@@V?$allocator@D@2@@std@@@std@@@std@@QAE@XZ 00424e70 f i MainFile.obj
 0002:0000eef0       ??0?$_Vector_val@U?$_Simple_types@V?$vector@V?$Point3_@M@cv@@V?$allocator@V?$Point3_@M@cv@@@std@@@std@@@std@@@std@@QAE@XZ 00424ef0 f i MainFile.obj
 0002:0000ef70       ??0?$_Vector_val@U?$_Simple_types@V?$vector@V?$Point_@M@cv@@V?$allocator@V?$Point_@M@cv@@@std@@@std@@@std@@@std@@QAE@XZ 00424f70 f i MainFile.obj
 0002:0000eff0       ??0?$_Wrap_alloc@V?$allocator@D@std@@@std@@QAE@ABV?$allocator@D@1@@Z 00424ff0 f i MainFile.obj
 0002:0000f050       ??0?$_Wrap_alloc@V?$allocator@V?$Point3_@M@cv@@@std@@@std@@QAE@ABV?$allocator@V?$Point3_@M@cv@@@1@@Z 00425050 f i MainFile.obj
 0002:0000f0b0       ??0?$_Wrap_alloc@V?$allocator@V?$Point_@M@cv@@@std@@@std@@QAE@ABV?$allocator@V?$Point_@M@cv@@@1@@Z 004250b0 f i MainFile.obj
 0002:0000f110       ??0?$_Wrap_alloc@V?$allocator@V?$Vec@M$02@cv@@@std@@@std@@QAE@ABV?$allocator@V?$Vec@M$02@cv@@@1@@Z 00425110 f i MainFile.obj
 0002:0000f170       ??0?$_Wrap_alloc@V?$allocator@V?$basic_string@DU?$char_traits@D@std@@V?$allocator@D@2@@std@@@std@@@std@@QAE@ABV?$allocator@V?$basic_string@DU?$char_traits@D@std@@V?$allocator@D@2@@std@@@1@@Z 00425170 f i MainFile.obj
 0002:0000f1d0       ??0?$_Wrap_alloc@V?$allocator@V?$vector@V?$Point3_@M@cv@@V?$allocator@V?$Point3_@M@cv@@@std@@@std@@@std@@@std@@QAE@ABV?$allocator@V?$vector@V?$Point3_@M@cv@@V?$allocator@V?$Point3_@M@cv@@@std@@@std@@@1@@Z 004251d0 f i MainFile.obj
 0002:0000f230       ??0?$_Wrap_alloc@V?$allocator@V?$vector@V?$Point_@M@cv@@V?$allocator@V?$Point_@M@cv@@@std@@@std@@@std@@@std@@QAE@ABV?$allocator@V?$vector@V?$Point_@M@cv@@V?$allocator@V?$Point_@M@cv@@@std@@@std@@@1@@Z 00425230 f i MainFile.obj
 0002:0000f290       ??0?$allocator@D@std@@QAE@ABV01@@Z 00425290 f i MainFile.obj
 0002:0000f2d0       ??0?$allocator@D@std@@QAE@XZ 004252d0 f i MainFile.obj
 0002:0000f310       ??0?$allocator@V?$Point3_@M@cv@@@std@@QAE@ABV01@@Z 00425310 f i MainFile.obj
 0002:0000f350       ??0?$allocator@V?$Point3_@M@cv@@@std@@QAE@XZ 00425350 f i MainFile.obj
 0002:0000f390       ??0?$allocator@V?$Point_@M@cv@@@std@@QAE@ABV01@@Z 00425390 f i MainFile.obj
 0002:0000f3d0       ??0?$allocator@V?$Point_@M@cv@@@std@@QAE@XZ 004253d0 f i MainFile.obj
 0002:0000f410       ??0?$allocator@V?$Vec@M$02@cv@@@std@@QAE@ABV01@@Z 00425410 f i MainFile.obj
 0002:0000f450       ??0?$allocator@V?$Vec@M$02@cv@@@std@@QAE@XZ 00425450 f i MainFile.obj
 0002:0000f490       ??0?$allocator@V?$basic_string@DU?$char_traits@D@std@@V?$allocator@D@2@@std@@@std@@QAE@ABV01@@Z 00425490 f i MainFile.obj
 0002:0000f4d0       ??0?$allocator@V?$basic_string@DU?$char_traits@D@std@@V?$allocator@D@2@@std@@@std@@QAE@XZ 004254d0 f i MainFile.obj
 0002:0000f510       ??0?$allocator@V?$vector@V?$Point3_@M@cv@@V?$allocator@V?$Point3_@M@cv@@@std@@@std@@@std@@QAE@ABV01@@Z 00425510 f i MainFile.obj
 0002:0000f550       ??0?$allocator@V?$vector@V?$Point3_@M@cv@@V?$allocator@V?$Point3_@M@cv@@@std@@@std@@@std@@QAE@XZ 00425550 f i MainFile.obj
 0002:0000f590       ??0?$allocator@V?$vector@V?$Point_@M@cv@@V?$allocator@V?$Point_@M@cv@@@std@@@std@@@std@@QAE@ABV01@@Z 00425590 f i MainFile.obj
 0002:0000f5d0       ??0?$allocator@V?$vector@V?$Point_@M@cv@@V?$allocator@V?$Point_@M@cv@@@std@@@std@@@std@@QAE@XZ 004255d0 f i MainFile.obj
 0002:0000f610       ??0?$back_insert_iterator@V?$vector@V?$Point_@M@cv@@V?$allocator@V?$Point_@M@cv@@@std@@@std@@@std@@QAE@AAV?$vector@V?$Point_@M@cv@@V?$allocator@V?$Point_@M@cv@@@std@@@1@@Z 00425610 f i MainFile.obj
 0002:0000f670       ??0?$basic_string@DU?$char_traits@D@std@@V?$allocator@D@2@@std@@QAE@$$QAV01@@Z 00425670 f i MainFile.obj
 0002:0000f740       ??0?$basic_string@DU?$char_traits@D@std@@V?$allocator@D@2@@std@@QAE@ABV01@@Z 00425740 f i MainFile.obj
 0002:0000f830       ??0?$basic_string@DU?$char_traits@D@std@@V?$allocator@D@2@@std@@QAE@PBD@Z 00425830 f i MainFile.obj
 0002:0000f900       ??0?$basic_string@DU?$char_traits@D@std@@V?$allocator@D@2@@std@@QAE@PBDI@Z 00425900 f i MainFile.obj
 0002:0000f9d0       ??0?$basic_string@DU?$char_traits@D@std@@V?$allocator@D@2@@std@@QAE@XZ 004259d0 f i MainFile.obj
 0002:0000fa80       ??0?$vector@V?$Point3_@M@cv@@V?$allocator@V?$Point3_@M@cv@@@std@@@std@@QAE@$$QAV01@@Z 00425a80 f i MainFile.obj
 0002:0000fb50       ??0?$vector@V?$Point3_@M@cv@@V?$allocator@V?$Point3_@M@cv@@@std@@@std@@QAE@XZ 00425b50 f i MainFile.obj
 0002:0000fbf0       ??0?$vector@V?$Point_@M@cv@@V?$allocator@V?$Point_@M@cv@@@std@@@std@@QAE@$$QAV01@@Z 00425bf0 f i MainFile.obj
 0002:0000fcc0       ??0?$vector@V?$Point_@M@cv@@V?$allocator@V?$Point_@M@cv@@@std@@@std@@QAE@XZ 00425cc0 f i MainFile.obj
 0002:0000fd60       ??0?$vector@V?$Vec@M$02@cv@@V?$allocator@V?$Vec@M$02@cv@@@std@@@std@@QAE@XZ 00425d60 f i MainFile.obj
 0002:0000fe00       ??0?$vector@V?$basic_string@DU?$char_traits@D@std@@V?$allocator@D@2@@std@@V?$allocator@V?$basic_string@DU?$char_traits@D@std@@V?$allocator@D@2@@std@@@2@@std@@QAE@XZ 00425e00 f i MainFile.obj
 0002:0000fea0       ??0?$vector@V?$vector@V?$Point3_@M@cv@@V?$allocator@V?$Point3_@M@cv@@@std@@@std@@V?$allocator@V?$vector@V?$Point3_@M@cv@@V?$allocator@V?$Point3_@M@cv@@@std@@@std@@@2@@std@@QAE@XZ 00425ea0 f i MainFile.obj
 0002:0000ff40       ??0?$vector@V?$vector@V?$Point_@M@cv@@V?$allocator@V?$Point_@M@cv@@@std@@@std@@V?$allocator@V?$vector@V?$Point_@M@cv@@V?$allocator@V?$Point_@M@cv@@@std@@@std@@@2@@std@@QAE@XZ 00425f40 f i MainFile.obj
 0002:0000ffe0       ??0FileNode@cv@@QAE@ABV01@@Z 00425fe0 f i MainFile.obj
 0002:00010040       ??0FileNode@cv@@QAE@PBUCvFileStorage@@PBUCvFileNode@@@Z 00426040 f i MainFile.obj
 0002:00010090       ??0FileNode@cv@@QAE@XZ     00426090 f i MainFile.obj
 0002:000100e0       ??0Mat@cv@@QAE@ABV01@@Z    004260e0 f i MainFile.obj
 0002:00010280       ??0Mat@cv@@QAE@HHHPAXI@Z   00426280 f i MainFile.obj
 0002:000105c0       ??0Mat@cv@@QAE@XZ          004265c0 f i MainFile.obj
 0002:000106b0       ??0MatSize@cv@@QAE@PAH@Z   004266b0 f i MainFile.obj
 0002:00010700       ??0MatStep@cv@@QAE@XZ      00426700 f i MainFile.obj
 0002:00010780       ??0String@cv@@QAE@ABV?$basic_string@DU?$char_traits@D@std@@V?$allocator@D@2@@std@@@Z 00426780 f i MainFile.obj
 0002:00010830       ??0String@cv@@QAE@PBD@Z    00426830 f i MainFile.obj
 0002:000108e0       ??0String@cv@@QAE@XZ       004268e0 f i MainFile.obj
 0002:00010930       ??0TermCriteria@cv@@QAE@HHN@Z 00426930 f i MainFile.obj
 0002:00010990       ??0_Container_base12@std@@QAE@XZ 00426990 f i MainFile.obj
 0002:000109e0       ??0_Container_proxy@std@@QAE@XZ 004269e0 f i MainFile.obj
 0002:00010a30       ??0_InputArray@cv@@QAE@ABVMat@1@@Z 00426a30 f i MainFile.obj
 0002:00010aa0       ??0_InputArray@cv@@QAE@XZ  00426aa0 f i MainFile.obj
 0002:00010b10       ??0_InputOutputArray@cv@@QAE@AAVMat@1@@Z 00426b10 f i MainFile.obj
 0002:00010bc0       ??0_Iterator_base12@std@@QAE@ABU01@@Z 00426bc0 f i MainFile.obj
 0002:00010c40       ??0_Iterator_base12@std@@QAE@XZ 00426c40 f i MainFile.obj
 0002:00010c90       ??0_OutputArray@cv@@QAE@AAVMat@1@@Z 00426c90 f i MainFile.obj
 0002:00010d40       ??0_OutputArray@cv@@QAE@XZ 00426d40 f i MainFile.obj
 0002:00010df0       ??0_Sentry_base@?$basic_ostream@DU?$char_traits@D@std@@@std@@QAE@AAV12@@Z 00426df0 f i MainFile.obj
 0002:00010ee0       ??0sentry@?$basic_ostream@DU?$char_traits@D@std@@@std@@QAE@AAV12@@Z 00426ee0 f i MainFile.obj
 0002:00011060       ??1?$Ptr@UCvCapture@@@cv@@QAE@XZ 00427060 f i MainFile.obj
 0002:000110f0       ??1?$Ptr@VIVideoCapture@cv@@@cv@@QAE@XZ 004270f0 f i MainFile.obj
 0002:00011180       ??1?$_Compressed_pair@U?$_Wrap_alloc@V?$allocator@D@std@@@std@@V?$_String_val@U?$_Simple_types@D@std@@@2@$00@std@@QAE@XZ 00427180 f i MainFile.obj
 0002:000111d0       ??1?$_Compressed_pair@U?$_Wrap_alloc@V?$allocator@V?$Point3_@M@cv@@@std@@@std@@V?$_Vector_val@U?$_Simple_types@V?$Point3_@M@cv@@@std@@@2@$00@std@@QAE@XZ 004271d0 f i MainFile.obj
 0002:00011220       ??1?$_Compressed_pair@U?$_Wrap_alloc@V?$allocator@V?$Point_@M@cv@@@std@@@std@@V?$_Vector_val@U?$_Simple_types@V?$Point_@M@cv@@@std@@@2@$00@std@@QAE@XZ 00427220 f i MainFile.obj
 0002:00011270       ??1?$_Compressed_pair@U?$_Wrap_alloc@V?$allocator@V?$Vec@M$02@cv@@@std@@@std@@V?$_Vector_val@U?$_Simple_types@V?$Vec@M$02@cv@@@std@@@2@$00@std@@QAE@XZ 00427270 f i MainFile.obj
 0002:000112c0       ??1?$_Compressed_pair@U?$_Wrap_alloc@V?$allocator@V?$basic_string@DU?$char_traits@D@std@@V?$allocator@D@2@@std@@@std@@@std@@V?$_Vector_val@U?$_Simple_types@V?$basic_string@DU?$char_traits@D@std@@V?$allocator@D@2@@std@@@std@@@2@$00@std@@QAE@XZ 004272c0 f i MainFile.obj
 0002:00011310       ??1?$_Compressed_pair@U?$_Wrap_alloc@V?$allocator@V?$vector@V?$Point3_@M@cv@@V?$allocator@V?$Point3_@M@cv@@@std@@@std@@@std@@@std@@V?$_Vector_val@U?$_Simple_types@V?$vector@V?$Point3_@M@cv@@V?$allocator@V?$Point3_@M@cv@@@std@@@std@@@std@@@2@$00@std@@QAE@XZ 00427310 f i MainFile.obj
 0002:00011360       ??1?$_Compressed_pair@U?$_Wrap_alloc@V?$allocator@V?$vector@V?$Point_@M@cv@@V?$allocator@V?$Point_@M@cv@@@std@@@std@@@std@@@std@@V?$_Vector_val@U?$_Simple_types@V?$vector@V?$Point_@M@cv@@V?$allocator@V?$Point_@M@cv@@@std@@@std@@@std@@@2@$00@std@@QAE@XZ 00427360 f i MainFile.obj
 0002:000113b0       ??1?$_Iterator012@Urandom_access_iterator_tag@std@@V?$Point_@M@cv@@HPBV34@ABV34@U_Iterator_base12@2@@std@@QAE@XZ 004273b0 f i MainFile.obj
 0002:00011400       ??1?$_String_alloc@U?$_String_base_types@DV?$allocator@D@std@@@std@@@std@@QAE@XZ 00427400 f i MainFile.obj
 0002:00011490       ??1?$_String_val@U?$_Simple_types@D@std@@@std@@QAE@XZ 00427490 f i MainFile.obj
 0002:000114e0       ??1?$_Vector_alloc@U?$_Vec_base_types@V?$Point3_@M@cv@@V?$allocator@V?$Point3_@M@cv@@@std@@@std@@@std@@QAE@XZ 004274e0 f i MainFile.obj
 0002:00011570       ??1?$_Vector_alloc@U?$_Vec_base_types@V?$Point_@M@cv@@V?$allocator@V?$Point_@M@cv@@@std@@@std@@@std@@QAE@XZ 00427570 f i MainFile.obj
 0002:00011600       ??1?$_Vector_alloc@U?$_Vec_base_types@V?$Vec@M$02@cv@@V?$allocator@V?$Vec@M$02@cv@@@std@@@std@@@std@@QAE@XZ 00427600 f i MainFile.obj
 0002:00011690       ??1?$_Vector_alloc@U?$_Vec_base_types@V?$basic_string@DU?$char_traits@D@std@@V?$allocator@D@2@@std@@V?$allocator@V?$basic_string@DU?$char_traits@D@std@@V?$allocator@D@2@@std@@@2@@std@@@std@@QAE@XZ 00427690 f i MainFile.obj
 0002:00011720       ??1?$_Vector_alloc@U?$_Vec_base_types@V?$vector@V?$Point3_@M@cv@@V?$allocator@V?$Point3_@M@cv@@@std@@@std@@V?$allocator@V?$vector@V?$Point3_@M@cv@@V?$allocator@V?$Point3_@M@cv@@@std@@@std@@@2@@std@@@std@@QAE@XZ 00427720 f i MainFile.obj
 0002:000117b0       ??1?$_Vector_alloc@U?$_Vec_base_types@V?$vector@V?$Point_@M@cv@@V?$allocator@V?$Point_@M@cv@@@std@@@std@@V?$allocator@V?$vector@V?$Point_@M@cv@@V?$allocator@V?$Point_@M@cv@@@std@@@std@@@2@@std@@@std@@QAE@XZ 004277b0 f i MainFile.obj
 0002:00011840       ??1?$_Vector_const_iterator@V?$_Vector_val@U?$_Simple_types@V?$Point_@M@cv@@@std@@@std@@@std@@QAE@XZ 00427840 f i MainFile.obj
 0002:00011890       ??1?$_Vector_iterator@V?$_Vector_val@U?$_Simple_types@V?$Point_@M@cv@@@std@@@std@@@std@@QAE@XZ 00427890 f i MainFile.obj
 0002:000118e0       ??1?$_Vector_val@U?$_Simple_types@V?$Point3_@M@cv@@@std@@@std@@QAE@XZ 004278e0 f i MainFile.obj
 0002:00011930       ??1?$_Vector_val@U?$_Simple_types@V?$Point_@M@cv@@@std@@@std@@QAE@XZ 00427930 f i MainFile.obj
 0002:00011980       ??1?$_Vector_val@U?$_Simple_types@V?$Vec@M$02@cv@@@std@@@std@@QAE@XZ 00427980 f i MainFile.obj
 0002:000119d0       ??1?$_Vector_val@U?$_Simple_types@V?$basic_string@DU?$char_traits@D@std@@V?$allocator@D@2@@std@@@std@@@std@@QAE@XZ 004279d0 f i MainFile.obj
 0002:00011a20       ??1?$_Vector_val@U?$_Simple_types@V?$vector@V?$Point3_@M@cv@@V?$allocator@V?$Point3_@M@cv@@@std@@@std@@@std@@@std@@QAE@XZ 00427a20 f i MainFile.obj
 0002:00011a70       ??1?$_Vector_val@U?$_Simple_types@V?$vector@V?$Point_@M@cv@@V?$allocator@V?$Point_@M@cv@@@std@@@std@@@std@@@std@@QAE@XZ 00427a70 f i MainFile.obj
 0002:00011ac0       ??1?$basic_string@DU?$char_traits@D@std@@V?$allocator@D@2@@std@@QAE@XZ 00427ac0 f i MainFile.obj
 0002:00011b60       ??1?$vector@V?$Point3_@M@cv@@V?$allocator@V?$Point3_@M@cv@@@std@@@std@@QAE@XZ 00427b60 f i MainFile.obj
 0002:00011bf0       ??1?$vector@V?$Point_@M@cv@@V?$allocator@V?$Point_@M@cv@@@std@@@std@@QAE@XZ 00427bf0 f i MainFile.obj
 0002:00011c80       ??1?$vector@V?$Vec@M$02@cv@@V?$allocator@V?$Vec@M$02@cv@@@std@@@std@@QAE@XZ 00427c80 f i MainFile.obj
 0002:00011d10       ??1?$vector@V?$basic_string@DU?$char_traits@D@std@@V?$allocator@D@2@@std@@V?$allocator@V?$basic_string@DU?$char_traits@D@std@@V?$allocator@D@2@@std@@@2@@std@@QAE@XZ 00427d10 f i MainFile.obj
 0002:00011da0       ??1?$vector@V?$vector@V?$Point3_@M@cv@@V?$allocator@V?$Point3_@M@cv@@@std@@@std@@V?$allocator@V?$vector@V?$Point3_@M@cv@@V?$allocator@V?$Point3_@M@cv@@@std@@@std@@@2@@std@@QAE@XZ 00427da0 f i MainFile.obj
 0002:00011e30       ??1?$vector@V?$vector@V?$Point_@M@cv@@V?$allocator@V?$Point_@M@cv@@@std@@@std@@V?$allocator@V?$vector@V?$Point_@M@cv@@V?$allocator@V?$Point_@M@cv@@@std@@@std@@@2@@std@@QAE@XZ 00427e30 f i MainFile.obj
 0002:00011ec0       ??1Mat@cv@@QAE@XZ          00427ec0 f i MainFile.obj
 0002:00011f70       ??1MatExpr@cv@@QAE@XZ      00427f70 f i MainFile.obj
 0002:00011fe0       ??1String@cv@@QAE@XZ       00427fe0 f i MainFile.obj
 0002:00012070       ??1_Container_base12@std@@QAE@XZ 00428070 f i MainFile.obj
 0002:00012100       ??1_InputArray@cv@@QAE@XZ  00428100 f i MainFile.obj
 0002:00012140       ??1_InputOutputArray@cv@@QAE@XZ 00428140 f i MainFile.obj
 0002:00012190       ??1_Iterator_base12@std@@QAE@XZ 00428190 f i MainFile.obj
 0002:00012290       ??1_OutputArray@cv@@QAE@XZ 00428290 f i MainFile.obj
 0002:000122e0       ??1_Sentry_base@?$basic_ostream@DU?$char_traits@D@std@@@std@@QAE@XZ 004282e0 f i MainFile.obj
 0002:00012400       ??1sentry@?$basic_ostream@DU?$char_traits@D@std@@@std@@QAE@XZ 00428400 f i MainFile.obj
 0002:000124c0       ??2@YAPAXIPAX@Z            004284c0 f i MainFile.obj
 0002:00012500       ??3@YAXPAX0@Z              00428500 f i MainFile.obj
 0002:00012530       ??4?$Ptr@UCvCapture@@@cv@@QAEAAU01@ABU01@@Z 00428530 f i MainFile.obj
 0002:00012610       ??4?$Ptr@VIVideoCapture@cv@@@cv@@QAEAAU01@ABU01@@Z 00428610 f i MainFile.obj
 0002:000126f0       ??4?$Size_@H@cv@@QAEAAV01@ABV01@@Z 004286f0 f i MainFile.obj
 0002:00012750       ??4?$back_insert_iterator@V?$vector@V?$Point_@M@cv@@V?$allocator@V?$Point_@M@cv@@@std@@@std@@@std@@QAEAAV01@ABV?$Point_@M@cv@@@Z 00428750 f i MainFile.obj
 0002:000127b0       ??4?$basic_string@DU?$char_traits@D@std@@V?$allocator@D@2@@std@@QAEAAV01@PBD@Z 004287b0 f i MainFile.obj
 0002:00012810       ??4Mat@cv@@QAEAAV01@ABV01@@Z 00428810 f i MainFile.obj
 0002:000129b0       ??4Mat@cv@@QAEAAV01@ABVMatExpr@1@@Z 004289b0 f i MainFile.obj
 0002:00012a30       ??4VideoCapture@cv@@QAEAAV01@ABV01@@Z 00428a30 f i MainFile.obj
 0002:00012ab0       ??4_Iterator_base12@std@@QAEAAU01@ABU01@@Z 00428ab0 f i MainFile.obj
 0002:00012cf0       ??8?$_Vector_const_iterator@V?$_Vector_val@U?$_Simple_types@V?$Point_@M@cv@@@std@@@std@@@std@@QBE_NABV01@@Z 00428cf0 f i MainFile.obj
 0002:00012e40       ??9?$_Vector_const_iterator@V?$_Vector_val@U?$_Simple_types@V?$Point_@M@cv@@@std@@@std@@@std@@QBE_NABV01@@Z 00428e40 f i MainFile.obj
 0002:00012f50       ??A?$Vec@M$02@cv@@QAEAAMH@Z 00428f50 f i MainFile.obj
 0002:00013040       ??A?$vector@V?$Point_@M@cv@@V?$allocator@V?$Point_@M@cv@@@std@@@std@@QAEAAV?$Point_@M@cv@@I@Z 00429040 f i MainFile.obj
 0002:00013160       ??A?$vector@V?$Point_@M@cv@@V?$allocator@V?$Point_@M@cv@@@std@@@std@@QBEABV?$Point_@M@cv@@I@Z 00429160 f i MainFile.obj
 0002:00013280       ??A?$vector@V?$Vec@M$02@cv@@V?$allocator@V?$Vec@M$02@cv@@@std@@@std@@QAEAAV?$Vec@M$02@cv@@I@Z 00429280 f i MainFile.obj
 0002:000133a0       ??A?$vector@V?$basic_string@DU?$char_traits@D@std@@V?$allocator@D@2@@std@@V?$allocator@V?$basic_string@DU?$char_traits@D@std@@V?$allocator@D@2@@std@@@2@@std@@QAEAAV?$basic_string@DU?$char_traits@D@std@@V?$allocator@D@2@@1@I@Z 004293a0 f i MainFile.obj
 0002:000134c0       ??A?$vector@V?$basic_string@DU?$char_traits@D@std@@V?$allocator@D@2@@std@@V?$allocator@V?$basic_string@DU?$char_traits@D@std@@V?$allocator@D@2@@std@@@2@@std@@QBEABV?$basic_string@DU?$char_traits@D@std@@V?$allocator@D@2@@1@I@Z 004294c0 f i MainFile.obj
 0002:000135e0       ??A?$vector@V?$vector@V?$Point3_@M@cv@@V?$allocator@V?$Point3_@M@cv@@@std@@@std@@V?$allocator@V?$vector@V?$Point3_@M@cv@@V?$allocator@V?$Point3_@M@cv@@@std@@@std@@@2@@std@@QAEAAV?$vector@V?$Point3_@M@cv@@V?$allocator@V?$Point3_@M@cv@@@std@@@1@I@Z 004295e0 f i MainFile.obj
 0002:00013700       ??A?$vector@V?$vector@V?$Point_@M@cv@@V?$allocator@V?$Point_@M@cv@@@std@@@std@@V?$allocator@V?$vector@V?$Point_@M@cv@@V?$allocator@V?$Point_@M@cv@@@std@@@std@@@2@@std@@QAEAAV?$vector@V?$Point_@M@cv@@V?$allocator@V?$Point_@M@cv@@@std@@@1@I@Z 00429700 f i MainFile.obj
 0002:00013820       ??AMatSize@cv@@QBEABHH@Z   00429820 f i MainFile.obj
 0002:00013870       ??AMatStep@cv@@QAEAAIH@Z   00429870 f i MainFile.obj
 0002:000138c0       ??AMatStep@cv@@QBEABIH@Z   004298c0 f i MainFile.obj
 0002:00013910       ??BFileNode@cv@@QBE?AV?$basic_string@DU?$char_traits@D@std@@V?$allocator@D@2@@std@@XZ 00429910 f i MainFile.obj
 0002:00013a60       ??BString@cv@@QBE?AV?$basic_string@DU?$char_traits@D@std@@V?$allocator@D@2@@std@@XZ 00429a60 f i MainFile.obj
 0002:00013af0       ??Bsentry@?$basic_ostream@DU?$char_traits@D@std@@@std@@QBE_NXZ 00429af0 f i MainFile.obj
 0002:00013b30       ??D?$back_insert_iterator@V?$vector@V?$Point_@M@cv@@V?$allocator@V?$Point_@M@cv@@@std@@@std@@@std@@QAEAAV01@XZ 00429b30 f i MainFile.obj
 0002:00013b70       ??DFileNodeIterator@cv@@QBE?AVFileNode@1@XZ 00429b70 f i MainFile.obj
 0002:00013be0       ??E?$back_insert_iterator@V?$vector@V?$Point_@M@cv@@V?$allocator@V?$Point_@M@cv@@@std@@@std@@@std@@QAEAAV01@XZ 00429be0 f i MainFile.obj
 0002:00013c20       ??M?$_Vector_const_iterator@V?$_Vector_val@U?$_Simple_types@V?$Point_@M@cv@@@std@@@std@@@std@@QBE_NABV01@@Z 00429c20 f i MainFile.obj
 0002:00013cb0       ??RMat@cv@@QBE?AV01@ABV?$Rect_@H@1@@Z 00429cb0 f i MainFile.obj
 0002:00013d30       ??RMatSize@cv@@QBE?AV?$Size_@H@1@XZ 00429d30 f i MainFile.obj
 0002:00013f60       ??_G?$basic_string@DU?$char_traits@D@std@@V?$allocator@D@2@@std@@QAEPAXI@Z 00429f60 f i MainFile.obj
 0002:00013fd0       ??_G?$vector@V?$Point3_@M@cv@@V?$allocator@V?$Point3_@M@cv@@@std@@@std@@QAEPAXI@Z 00429fd0 f i MainFile.obj
 0002:00014040       ??_G?$vector@V?$Point_@M@cv@@V?$allocator@V?$Point_@M@cv@@@std@@@std@@QAEPAXI@Z 0042a040 f i MainFile.obj
 0002:000140b0       ??_H@YGXPAXIIP6EPAX0@Z@Z   0042a0b0 f i MainFile.obj
 0002:00014160       ?CallBackFunc@@YAXHHHHPAX@Z 0042a160 f   MainFile.obj
 0002:000144f0       ?assign@?$basic_string@DU?$char_traits@D@std@@V?$allocator@D@2@@std@@QAEAAV12@ABV12@II@Z 0042a4f0 f i MainFile.obj
 0002:000145d0       ?Foo@@YAXH@Z               0042a5d0 f   MainFile.obj
 0002:00017ac0       ?channels@Mat@cv@@QBEHXZ   0042dac0 f i MainFile.obj
 0002:00017b00       ?check_for_tracking@@YAXVMat@cv@@@Z 0042db00 f   MainFile.obj
 0002:00017ce0       ?create@Mat@cv@@QAEXHHH@Z  0042dce0 f i MainFile.obj
 0002:00017df0       ?decRef@PtrOwner@detail@cv@@QAEXXZ 0042ddf0 f i MainFile.obj
 0002:00017e50       ?find_and_draw_chess@@YAXVMat@cv@@@Z 0042de50 f   MainFile.obj
 0002:000182e0       ?getFirstTopLevelNode@FileStorage@cv@@QBE?AVFileNode@2@XZ 0042e2e0 f i MainFile.obj
 0002:00018400       ?launch_calibration@@YAXXZ 0042e400 f   MainFile.obj
 0002:00018630       ?init@_InputArray@cv@@IAEXHPBX@Z 0042e630 f i MainFile.obj
 0002:00018670       ?show_calibration_gui@@YAXXZ 0042e670 f   MainFile.obj
 0002:000187b0       ?_Adopt@_Iterator_base12@std@@QAEXPBU_Container_base12@2@@Z 0042e7b0 f i MainFile.obj
 0002:00018970       ?_Alloc_proxy@?$_String_alloc@U?$_String_base_types@DV?$allocator@D@std@@@std@@@std@@QAEXXZ 0042e970 f i MainFile.obj
 0002:00018a80       ?_Alloc_proxy@?$_Vector_alloc@U?$_Vec_base_types@V?$Point3_@M@cv@@V?$allocator@V?$Point3_@M@cv@@@std@@@std@@@std@@QAEXXZ 0042ea80 f i MainFile.obj
 0002:00018b90       ?_Alloc_proxy@?$_Vector_alloc@U?$_Vec_base_types@V?$Point_@M@cv@@V?$allocator@V?$Point_@M@cv@@@std@@@std@@@std@@QAEXXZ 0042eb90 f i MainFile.obj
 0002:00018ca0       ?_Alloc_proxy@?$_Vector_alloc@U?$_Vec_base_types@V?$Vec@M$02@cv@@V?$allocator@V?$Vec@M$02@cv@@@std@@@std@@@std@@QAEXXZ 0042eca0 f i MainFile.obj
 0002:00018db0       ?_Alloc_proxy@?$_Vector_alloc@U?$_Vec_base_types@V?$basic_string@DU?$char_traits@D@std@@V?$allocator@D@2@@std@@V?$allocator@V?$basic_string@DU?$char_traits@D@std@@V?$allocator@D@2@@std@@@2@@std@@@std@@QAEXXZ 0042edb0 f i MainFile.obj
 0002:00018ec0       ?_Alloc_proxy@?$_Vector_alloc@U?$_Vec_base_types@V?$vector@V?$Point3_@M@cv@@V?$allocator@V?$Point3_@M@cv@@@std@@@std@@V?$allocator@V?$vector@V?$Point3_@M@cv@@V?$allocator@V?$Point3_@M@cv@@@std@@@std@@@2@@std@@@std@@QAEXXZ 0042eec0 f i MainFile.obj
 0002:00018fd0       ?_Alloc_proxy@?$_Vector_alloc@U?$_Vec_base_types@V?$vector@V?$Point_@M@cv@@V?$allocator@V?$Point_@M@cv@@@std@@@std@@V?$allocator@V?$vector@V?$Point_@M@cv@@V?$allocator@V?$Point_@M@cv@@@std@@@std@@@2@@std@@@std@@QAEXXZ 0042efd0 f i MainFile.obj
 0002:000190e0       ?_Assign_rv@?$basic_string@DU?$char_traits@D@std@@V?$allocator@D@2@@std@@QAEX$$QAV12@@Z 0042f0e0 f i MainFile.obj
 0002:000191f0       ?_Assign_rv@?$vector@V?$Point3_@M@cv@@V?$allocator@V?$Point3_@M@cv@@@std@@@std@@QAEX$$QAV12@U?$integral_constant@_N$00@2@@Z 0042f1f0 f i MainFile.obj
 0002:000192d0       ?_Assign_rv@?$vector@V?$Point_@M@cv@@V?$allocator@V?$Point_@M@cv@@@std@@@std@@QAEX$$QAV12@U?$integral_constant@_N$00@2@@Z 0042f2d0 f i MainFile.obj
 0002:000193b0       ?_Bx@?$_String_alloc@U?$_String_base_types@DV?$allocator@D@std@@@std@@@std@@QAEAAT_Bxty@?$_String_val@U?$_Simple_types@D@std@@@2@XZ 0042f3b0 f i MainFile.obj
 0002:00019410       ?_Clrcont@_Iterator_base12@std@@QAEXXZ 0042f410 f i MainFile.obj
 0002:00019450       ?_Compat@?$_Vector_const_iterator@V?$_Vector_val@U?$_Simple_types@V?$Point_@M@cv@@@std@@@std@@@std@@QBEXABV12@@Z 0042f450 f i MainFile.obj
 0002:00019570       ?_Copy@?$basic_string@DU?$char_traits@D@std@@V?$allocator@D@2@@std@@QAEXII@Z 0042f570 f i MainFile.obj
 0002:00019830       ?_Destroy@?$vector@V?$Point3_@M@cv@@V?$allocator@V?$Point3_@M@cv@@@std@@@std@@IAEXPAV?$Point3_@M@cv@@0@Z 0042f830 f i MainFile.obj
 0002:000198a0       ?_Destroy@?$vector@V?$Point_@M@cv@@V?$allocator@V?$Point_@M@cv@@@std@@@std@@IAEXPAV?$Point_@M@cv@@0@Z 0042f8a0 f i MainFile.obj
 0002:00019910       ?_Destroy@?$vector@V?$Vec@M$02@cv@@V?$allocator@V?$Vec@M$02@cv@@@std@@@std@@IAEXPAV?$Vec@M$02@cv@@0@Z 0042f910 f i MainFile.obj
 0002:00019980       ?_Destroy@?$vector@V?$basic_string@DU?$char_traits@D@std@@V?$allocator@D@2@@std@@V?$allocator@V?$basic_string@DU?$char_traits@D@std@@V?$allocator@D@2@@std@@@2@@std@@IAEXPAV?$basic_string@DU?$char_traits@D@std@@V?$allocator@D@2@@2@0@Z 0042f980 f i MainFile.obj
 0002:000199f0       ?_Destroy@?$vector@V?$vector@V?$Point3_@M@cv@@V?$allocator@V?$Point3_@M@cv@@@std@@@std@@V?$allocator@V?$vector@V?$Point3_@M@cv@@V?$allocator@V?$Point3_@M@cv@@@std@@@std@@@2@@std@@IAEXPAV?$vector@V?$Point3_@M@cv@@V?$allocator@V?$Point3_@M@cv@@@std@@@2@0@Z 0042f9f0 f i MainFile.obj
 0002:00019a60       ?_Destroy@?$vector@V?$vector@V?$Point_@M@cv@@V?$allocator@V?$Point_@M@cv@@@std@@@std@@V?$allocator@V?$vector@V?$Point_@M@cv@@V?$allocator@V?$Point_@M@cv@@@std@@@std@@@2@@std@@IAEXPAV?$vector@V?$Point_@M@cv@@V?$allocator@V?$Point_@M@cv@@@std@@@2@0@Z 0042fa60 f i MainFile.obj
 0002:00019ad0       ?_Eos@?$basic_string@DU?$char_traits@D@std@@V?$allocator@D@2@@std@@QAEXI@Z 0042fad0 f i MainFile.obj
 0002:00019b60       ?_Free_proxy@?$_String_alloc@U?$_String_base_types@DV?$allocator@D@std@@@std@@@std@@QAEXXZ 0042fb60 f i MainFile.obj
 0002:00019c60       ?_Free_proxy@?$_Vector_alloc@U?$_Vec_base_types@V?$Point3_@M@cv@@V?$allocator@V?$Point3_@M@cv@@@std@@@std@@@std@@QAEXXZ 0042fc60 f i MainFile.obj
 0002:00019d60       ?_Free_proxy@?$_Vector_alloc@U?$_Vec_base_types@V?$Point_@M@cv@@V?$allocator@V?$Point_@M@cv@@@std@@@std@@@std@@QAEXXZ 0042fd60 f i MainFile.obj
 0002:00019e60       ?_Free_proxy@?$_Vector_alloc@U?$_Vec_base_types@V?$Vec@M$02@cv@@V?$allocator@V?$Vec@M$02@cv@@@std@@@std@@@std@@QAEXXZ 0042fe60 f i MainFile.obj
 0002:00019f60       ?_Free_proxy@?$_Vector_alloc@U?$_Vec_base_types@V?$basic_string@DU?$char_traits@D@std@@V?$allocator@D@2@@std@@V?$allocator@V?$basic_string@DU?$char_traits@D@std@@V?$allocator@D@2@@std@@@2@@std@@@std@@QAEXXZ 0042ff60 f i MainFile.obj
 0002:0001a060       ?_Free_proxy@?$_Vector_alloc@U?$_Vec_base_types@V?$vector@V?$Point3_@M@cv@@V?$allocator@V?$Point3_@M@cv@@@std@@@std@@V?$allocator@V?$vector@V?$Point3_@M@cv@@V?$allocator@V?$Point3_@M@cv@@@std@@@std@@@2@@std@@@std@@QAEXXZ 00430060 f i MainFile.obj
 0002:0001a160       ?_Free_proxy@?$_Vector_alloc@U?$_Vec_base_types@V?$vector@V?$Point_@M@cv@@V?$allocator@V?$Point_@M@cv@@@std@@@std@@V?$allocator@V?$vector@V?$Point_@M@cv@@V?$allocator@V?$Point_@M@cv@@@std@@@std@@@2@@std@@@std@@QAEXXZ 00430160 f i MainFile.obj
 0002:0001a260       ?_Get_data@?$_String_alloc@U?$_String_base_types@DV?$allocator@D@std@@@std@@@std@@QAEAAV?$_String_val@U?$_Simple_types@D@std@@@2@XZ 00430260 f i MainFile.obj
 0002:0001a2b0       ?_Get_data@?$_String_alloc@U?$_String_base_types@DV?$allocator@D@std@@@std@@@std@@QBEABV?$_String_val@U?$_Simple_types@D@std@@@2@XZ 004302b0 f i MainFile.obj
 0002:0001a300       ?_Get_data@?$_Vector_alloc@U?$_Vec_base_types@V?$Point3_@M@cv@@V?$allocator@V?$Point3_@M@cv@@@std@@@std@@@std@@QAEAAV?$_Vector_val@U?$_Simple_types@V?$Point3_@M@cv@@@std@@@2@XZ 00430300 f i MainFile.obj
 0002:0001a350       ?_Get_data@?$_Vector_alloc@U?$_Vec_base_types@V?$Point3_@M@cv@@V?$allocator@V?$Point3_@M@cv@@@std@@@std@@@std@@QBEABV?$_Vector_val@U?$_Simple_types@V?$Point3_@M@cv@@@std@@@2@XZ 00430350 f i MainFile.obj
 0002:0001a3a0       ?_Get_data@?$_Vector_alloc@U?$_Vec_base_types@V?$Point_@M@cv@@V?$allocator@V?$Point_@M@cv@@@std@@@std@@@std@@QAEAAV?$_Vector_val@U?$_Simple_types@V?$Point_@M@cv@@@std@@@2@XZ 004303a0 f i MainFile.obj
 0002:0001a3f0       ?_Get_data@?$_Vector_alloc@U?$_Vec_base_types@V?$Point_@M@cv@@V?$allocator@V?$Point_@M@cv@@@std@@@std@@@std@@QBEABV?$_Vector_val@U?$_Simple_types@V?$Point_@M@cv@@@std@@@2@XZ 004303f0 f i MainFile.obj
 0002:0001a440       ?_Get_data@?$_Vector_alloc@U?$_Vec_base_types@V?$Vec@M$02@cv@@V?$allocator@V?$Vec@M$02@cv@@@std@@@std@@@std@@QAEAAV?$_Vector_val@U?$_Simple_types@V?$Vec@M$02@cv@@@std@@@2@XZ 00430440 f i MainFile.obj
 0002:0001a490       ?_Get_data@?$_Vector_alloc@U?$_Vec_base_types@V?$Vec@M$02@cv@@V?$allocator@V?$Vec@M$02@cv@@@std@@@std@@@std@@QBEABV?$_Vector_val@U?$_Simple_types@V?$Vec@M$02@cv@@@std@@@2@XZ 00430490 f i MainFile.obj
 0002:0001a4e0       ?_Get_data@?$_Vector_alloc@U?$_Vec_base_types@V?$basic_string@DU?$char_traits@D@std@@V?$allocator@D@2@@std@@V?$allocator@V?$basic_string@DU?$char_traits@D@std@@V?$allocator@D@2@@std@@@2@@std@@@std@@QAEAAV?$_Vector_val@U?$_Simple_types@V?$basic_string@DU?$char_traits@D@std@@V?$allocator@D@2@@std@@@std@@@2@XZ 004304e0 f i MainFile.obj
 0002:0001a530       ?_Get_data@?$_Vector_alloc@U?$_Vec_base_types@V?$basic_string@DU?$char_traits@D@std@@V?$allocator@D@2@@std@@V?$allocator@V?$basic_string@DU?$char_traits@D@std@@V?$allocator@D@2@@std@@@2@@std@@@std@@QBEABV?$_Vector_val@U?$_Simple_types@V?$basic_string@DU?$char_traits@D@std@@V?$allocator@D@2@@std@@@std@@@2@XZ 00430530 f i MainFile.obj
 0002:0001a580       ?_Get_data@?$_Vector_alloc@U?$_Vec_base_types@V?$vector@V?$Point3_@M@cv@@V?$allocator@V?$Point3_@M@cv@@@std@@@std@@V?$allocator@V?$vector@V?$Point3_@M@cv@@V?$allocator@V?$Point3_@M@cv@@@std@@@std@@@2@@std@@@std@@QAEAAV?$_Vector_val@U?$_Simple_types@V?$vector@V?$Point3_@M@cv@@V?$allocator@V?$Point3_@M@cv@@@std@@@std@@@std@@@2@XZ 00430580 f i MainFile.obj
 0002:0001a5d0       ?_Get_data@?$_Vector_alloc@U?$_Vec_base_types@V?$vector@V?$Point3_@M@cv@@V?$allocator@V?$Point3_@M@cv@@@std@@@std@@V?$allocator@V?$vector@V?$Point3_@M@cv@@V?$allocator@V?$Point3_@M@cv@@@std@@@std@@@2@@std@@@std@@QBEABV?$_Vector_val@U?$_Simple_types@V?$vector@V?$Point3_@M@cv@@V?$allocator@V?$Point3_@M@cv@@@std@@@std@@@std@@@2@XZ 004305d0 f i MainFile.obj
 0002:0001a620       ?_Get_data@?$_Vector_alloc@U?$_Vec_base_types@V?$vector@V?$Point_@M@cv@@V?$allocator@V?$Point_@M@cv@@@std@@@std@@V?$allocator@V?$vector@V?$Point_@M@cv@@V?$allocator@V?$Point_@M@cv@@@std@@@std@@@2@@std@@@std@@QAEAAV?$_Vector_val@U?$_Simple_types@V?$vector@V?$Point_@M@cv@@V?$allocator@V?$Point_@M@cv@@@std@@@std@@@std@@@2@XZ 00430620 f i MainFile.obj
 0002:0001a670       ?_Get_data@?$_Vector_alloc@U?$_Vec_base_types@V?$vector@V?$Point_@M@cv@@V?$allocator@V?$Point_@M@cv@@@std@@@std@@V?$allocator@V?$vector@V?$Point_@M@cv@@V?$allocator@V?$Point_@M@cv@@@std@@@std@@@2@@std@@@std@@QBEABV?$_Vector_val@U?$_Simple_types@V?$vector@V?$Point_@M@cv@@V?$allocator@V?$Point_@M@cv@@@std@@@std@@@std@@@2@XZ 00430670 f i MainFile.obj
 0002:0001a6c0       ?_Get_first@?$_Compressed_pair@U?$_Wrap_alloc@V?$allocator@D@std@@@std@@V?$_String_val@U?$_Simple_types@D@std@@@2@$00@std@@QAEAAU?$_Wrap_alloc@V?$allocator@D@std@@@2@XZ 004306c0 f i MainFile.obj
 0002:0001a700       ?_Get_first@?$_Compressed_pair@U?$_Wrap_alloc@V?$allocator@D@std@@@std@@V?$_String_val@U?$_Simple_types@D@std@@@2@$00@std@@QBEABU?$_Wrap_alloc@V?$allocator@D@std@@@2@XZ 00430700 f i MainFile.obj
 0002:0001a740       ?_Get_first@?$_Compressed_pair@U?$_Wrap_alloc@V?$allocator@V?$Point3_@M@cv@@@std@@@std@@V?$_Vector_val@U?$_Simple_types@V?$Point3_@M@cv@@@std@@@2@$00@std@@QAEAAU?$_Wrap_alloc@V?$allocator@V?$Point3_@M@cv@@@std@@@2@XZ 00430740 f i MainFile.obj
 0002:0001a780       ?_Get_first@?$_Compressed_pair@U?$_Wrap_alloc@V?$allocator@V?$Point3_@M@cv@@@std@@@std@@V?$_Vector_val@U?$_Simple_types@V?$Point3_@M@cv@@@std@@@2@$00@std@@QBEABU?$_Wrap_alloc@V?$allocator@V?$Point3_@M@cv@@@std@@@2@XZ 00430780 f i MainFile.obj
 0002:0001a7c0       ?_Get_first@?$_Compressed_pair@U?$_Wrap_alloc@V?$allocator@V?$Point_@M@cv@@@std@@@std@@V?$_Vector_val@U?$_Simple_types@V?$Point_@M@cv@@@std@@@2@$00@std@@QAEAAU?$_Wrap_alloc@V?$allocator@V?$Point_@M@cv@@@std@@@2@XZ 004307c0 f i MainFile.obj
 0002:0001a800       ?_Get_first@?$_Compressed_pair@U?$_Wrap_alloc@V?$allocator@V?$Point_@M@cv@@@std@@@std@@V?$_Vector_val@U?$_Simple_types@V?$Point_@M@cv@@@std@@@2@$00@std@@QBEABU?$_Wrap_alloc@V?$allocator@V?$Point_@M@cv@@@std@@@2@XZ 00430800 f i MainFile.obj
 0002:0001a840       ?_Get_first@?$_Compressed_pair@U?$_Wrap_alloc@V?$allocator@V?$Vec@M$02@cv@@@std@@@std@@V?$_Vector_val@U?$_Simple_types@V?$Vec@M$02@cv@@@std@@@2@$00@std@@QAEAAU?$_Wrap_alloc@V?$allocator@V?$Vec@M$02@cv@@@std@@@2@XZ 00430840 f i MainFile.obj
 0002:0001a880       ?_Get_first@?$_Compressed_pair@U?$_Wrap_alloc@V?$allocator@V?$basic_string@DU?$char_traits@D@std@@V?$allocator@D@2@@std@@@std@@@std@@V?$_Vector_val@U?$_Simple_types@V?$basic_string@DU?$char_traits@D@std@@V?$allocator@D@2@@std@@@std@@@2@$00@std@@QAEAAU?$_Wrap_alloc@V?$allocator@V?$basic_string@DU?$char_traits@D@std@@V?$allocator@D@2@@std@@@std@@@2@XZ 00430880 f i MainFile.obj
 0002:0001a8c0       ?_Get_first@?$_Compressed_pair@U?$_Wrap_alloc@V?$allocator@V?$basic_string@DU?$char_traits@D@std@@V?$allocator@D@2@@std@@@std@@@std@@V?$_Vector_val@U?$_Simple_types@V?$basic_string@DU?$char_traits@D@std@@V?$allocator@D@2@@std@@@std@@@2@$00@std@@QBEABU?$_Wrap_alloc@V?$allocator@V?$basic_string@DU?$char_traits@D@std@@V?$allocator@D@2@@std@@@std@@@2@XZ 004308c0 f i MainFile.obj
 0002:0001a900       ?_Get_first@?$_Compressed_pair@U?$_Wrap_alloc@V?$allocator@V?$vector@V?$Point3_@M@cv@@V?$allocator@V?$Point3_@M@cv@@@std@@@std@@@std@@@std@@V?$_Vector_val@U?$_Simple_types@V?$vector@V?$Point3_@M@cv@@V?$allocator@V?$Point3_@M@cv@@@std@@@std@@@std@@@2@$00@std@@QAEAAU?$_Wrap_alloc@V?$allocator@V?$vector@V?$Point3_@M@cv@@V?$allocator@V?$Point3_@M@cv@@@std@@@std@@@std@@@2@XZ 00430900 f i MainFile.obj
 0002:0001a940       ?_Get_first@?$_Compressed_pair@U?$_Wrap_alloc@V?$allocator@V?$vector@V?$Point3_@M@cv@@V?$allocator@V?$Point3_@M@cv@@@std@@@std@@@std@@@std@@V?$_Vector_val@U?$_Simple_types@V?$vector@V?$Point3_@M@cv@@V?$allocator@V?$Point3_@M@cv@@@std@@@std@@@std@@@2@$00@std@@QBEABU?$_Wrap_alloc@V?$allocator@V?$vector@V?$Point3_@M@cv@@V?$allocator@V?$Point3_@M@cv@@@std@@@std@@@std@@@2@XZ 00430940 f i MainFile.obj
 0002:0001a980       ?_Get_first@?$_Compressed_pair@U?$_Wrap_alloc@V?$allocator@V?$vector@V?$Point_@M@cv@@V?$allocator@V?$Point_@M@cv@@@std@@@std@@@std@@@std@@V?$_Vector_val@U?$_Simple_types@V?$vector@V?$Point_@M@cv@@V?$allocator@V?$Point_@M@cv@@@std@@@std@@@std@@@2@$00@std@@QAEAAU?$_Wrap_alloc@V?$allocator@V?$vector@V?$Point_@M@cv@@V?$allocator@V?$Point_@M@cv@@@std@@@std@@@std@@@2@XZ 00430980 f i MainFile.obj
 0002:0001a9c0       ?_Get_first@?$_Compressed_pair@U?$_Wrap_alloc@V?$allocator@V?$vector@V?$Point_@M@cv@@V?$allocator@V?$Point_@M@cv@@@std@@@std@@@std@@@std@@V?$_Vector_val@U?$_Simple_types@V?$vector@V?$Point_@M@cv@@V?$allocator@V?$Point_@M@cv@@@std@@@std@@@std@@@2@$00@std@@QBEABU?$_Wrap_alloc@V?$allocator@V?$vector@V?$Point_@M@cv@@V?$allocator@V?$Point_@M@cv@@@std@@@std@@@std@@@2@XZ 004309c0 f i MainFile.obj
 0002:0001aa00       ?_Get_second@?$_Compressed_pair@U?$_Wrap_alloc@V?$allocator@D@std@@@std@@V?$_String_val@U?$_Simple_types@D@std@@@2@$00@std@@QAEAAV?$_String_val@U?$_Simple_types@D@std@@@2@XZ 00430a00 f i MainFile.obj
 0002:0001aa40       ?_Get_second@?$_Compressed_pair@U?$_Wrap_alloc@V?$allocator@D@std@@@std@@V?$_String_val@U?$_Simple_types@D@std@@@2@$00@std@@QBEABV?$_String_val@U?$_Simple_types@D@std@@@2@XZ 00430a40 f i MainFile.obj
 0002:0001aa80       ?_Get_second@?$_Compressed_pair@U?$_Wrap_alloc@V?$allocator@V?$Point3_@M@cv@@@std@@@std@@V?$_Vector_val@U?$_Simple_types@V?$Point3_@M@cv@@@std@@@2@$00@std@@QAEAAV?$_Vector_val@U?$_Simple_types@V?$Point3_@M@cv@@@std@@@2@XZ 00430a80 f i MainFile.obj
 0002:0001aac0       ?_Get_second@?$_Compressed_pair@U?$_Wrap_alloc@V?$allocator@V?$Point3_@M@cv@@@std@@@std@@V?$_Vector_val@U?$_Simple_types@V?$Point3_@M@cv@@@std@@@2@$00@std@@QBEABV?$_Vector_val@U?$_Simple_types@V?$Point3_@M@cv@@@std@@@2@XZ 00430ac0 f i MainFile.obj
 0002:0001ab00       ?_Get_second@?$_Compressed_pair@U?$_Wrap_alloc@V?$allocator@V?$Point_@M@cv@@@std@@@std@@V?$_Vector_val@U?$_Simple_types@V?$Point_@M@cv@@@std@@@2@$00@std@@QAEAAV?$_Vector_val@U?$_Simple_types@V?$Point_@M@cv@@@std@@@2@XZ 00430b00 f i MainFile.obj
 0002:0001ab40       ?_Get_second@?$_Compressed_pair@U?$_Wrap_alloc@V?$allocator@V?$Point_@M@cv@@@std@@@std@@V?$_Vector_val@U?$_Simple_types@V?$Point_@M@cv@@@std@@@2@$00@std@@QBEABV?$_Vector_val@U?$_Simple_types@V?$Point_@M@cv@@@std@@@2@XZ 00430b40 f i MainFile.obj
 0002:0001ab80       ?_Get_second@?$_Compressed_pair@U?$_Wrap_alloc@V?$allocator@V?$Vec@M$02@cv@@@std@@@std@@V?$_Vector_val@U?$_Simple_types@V?$Vec@M$02@cv@@@std@@@2@$00@std@@QAEAAV?$_Vector_val@U?$_Simple_types@V?$Vec@M$02@cv@@@std@@@2@XZ 00430b80 f i MainFile.obj
 0002:0001abc0       ?_Get_second@?$_Compressed_pair@U?$_Wrap_alloc@V?$allocator@V?$Vec@M$02@cv@@@std@@@std@@V?$_Vector_val@U?$_Simple_types@V?$Vec@M$02@cv@@@std@@@2@$00@std@@QBEABV?$_Vector_val@U?$_Simple_types@V?$Vec@M$02@cv@@@std@@@2@XZ 00430bc0 f i MainFile.obj
 0002:0001ac00       ?_Get_second@?$_Compressed_pair@U?$_Wrap_alloc@V?$allocator@V?$basic_string@DU?$char_traits@D@std@@V?$allocator@D@2@@std@@@std@@@std@@V?$_Vector_val@U?$_Simple_types@V?$basic_string@DU?$char_traits@D@std@@V?$allocator@D@2@@std@@@std@@@2@$00@std@@QAEAAV?$_Vector_val@U?$_Simple_types@V?$basic_string@DU?$char_traits@D@std@@V?$allocator@D@2@@std@@@std@@@2@XZ 00430c00 f i MainFile.obj
 0002:0001ac40       ?_Get_second@?$_Compressed_pair@U?$_Wrap_alloc@V?$allocator@V?$basic_string@DU?$char_traits@D@std@@V?$allocator@D@2@@std@@@std@@@std@@V?$_Vector_val@U?$_Simple_types@V?$basic_string@DU?$char_traits@D@std@@V?$allocator@D@2@@std@@@std@@@2@$00@std@@QBEABV?$_Vector_val@U?$_Simple_types@V?$basic_string@DU?$char_traits@D@std@@V?$allocator@D@2@@std@@@std@@@2@XZ 00430c40 f i MainFile.obj
 0002:0001ac80       ?_Get_second@?$_Compressed_pair@U?$_Wrap_alloc@V?$allocator@V?$vector@V?$Point3_@M@cv@@V?$allocator@V?$Point3_@M@cv@@@std@@@std@@@std@@@std@@V?$_Vector_val@U?$_Simple_types@V?$vector@V?$Point3_@M@cv@@V?$allocator@V?$Point3_@M@cv@@@std@@@std@@@std@@@2@$00@std@@QAEAAV?$_Vector_val@U?$_Simple_types@V?$vector@V?$Point3_@M@cv@@V?$allocator@V?$Point3_@M@cv@@@std@@@std@@@std@@@2@XZ 00430c80 f i MainFile.obj
 0002:0001acc0       ?_Get_second@?$_Compressed_pair@U?$_Wrap_alloc@V?$allocator@V?$vector@V?$Point3_@M@cv@@V?$allocator@V?$Point3_@M@cv@@@std@@@std@@@std@@@std@@V?$_Vector_val@U?$_Simple_types@V?$vector@V?$Point3_@M@cv@@V?$allocator@V?$Point3_@M@cv@@@std@@@std@@@std@@@2@$00@std@@QBEABV?$_Vector_val@U?$_Simple_types@V?$vector@V?$Point3_@M@cv@@V?$allocator@V?$Point3_@M@cv@@@std@@@std@@@std@@@2@XZ 00430cc0 f i MainFile.obj
 0002:0001ad00       ?_Get_second@?$_Compressed_pair@U?$_Wrap_alloc@V?$allocator@V?$vector@V?$Point_@M@cv@@V?$allocator@V?$Point_@M@cv@@@std@@@std@@@std@@@std@@V?$_Vector_val@U?$_Simple_types@V?$vector@V?$Point_@M@cv@@V?$allocator@V?$Point_@M@cv@@@std@@@std@@@std@@@2@$00@std@@QAEAAV?$_Vector_val@U?$_Simple_types@V?$vector@V?$Point_@M@cv@@V?$allocator@V?$Point_@M@cv@@@std@@@std@@@std@@@2@XZ 00430d00 f i MainFile.obj
 0002:0001ad40       ?_Get_second@?$_Compressed_pair@U?$_Wrap_alloc@V?$allocator@V?$vector@V?$Point_@M@cv@@V?$allocator@V?$Point_@M@cv@@@std@@@std@@@std@@@std@@V?$_Vector_val@U?$_Simple_types@V?$vector@V?$Point_@M@cv@@V?$allocator@V?$Point_@M@cv@@@std@@@std@@@std@@@2@$00@std@@QBEABV?$_Vector_val@U?$_Simple_types@V?$vector@V?$Point_@M@cv@@V?$allocator@V?$Point_@M@cv@@@std@@@std@@@std@@@2@XZ 00430d40 f i MainFile.obj
 0002:0001ad80       ?_Getal@?$_String_alloc@U?$_String_base_types@DV?$allocator@D@std@@@std@@@std@@QAEAAU?$_Wrap_alloc@V?$allocator@D@std@@@2@XZ 00430d80 f i MainFile.obj
 0002:0001add0       ?_Getal@?$_String_alloc@U?$_String_base_types@DV?$allocator@D@std@@@std@@@std@@QBEABU?$_Wrap_alloc@V?$allocator@D@std@@@2@XZ 00430dd0 f i MainFile.obj
 0002:0001ae20       ?_Getal@?$_Vector_alloc@U?$_Vec_base_types@V?$Point3_@M@cv@@V?$allocator@V?$Point3_@M@cv@@@std@@@std@@@std@@QAEAAU?$_Wrap_alloc@V?$allocator@V?$Point3_@M@cv@@@std@@@2@XZ 00430e20 f i MainFile.obj
 0002:0001ae70       ?_Getal@?$_Vector_alloc@U?$_Vec_base_types@V?$Point3_@M@cv@@V?$allocator@V?$Point3_@M@cv@@@std@@@std@@@std@@QBEABU?$_Wrap_alloc@V?$allocator@V?$Point3_@M@cv@@@std@@@2@XZ 00430e70 f i MainFile.obj
 0002:0001aec0       ?_Getal@?$_Vector_alloc@U?$_Vec_base_types@V?$Point_@M@cv@@V?$allocator@V?$Point_@M@cv@@@std@@@std@@@std@@QAEAAU?$_Wrap_alloc@V?$allocator@V?$Point_@M@cv@@@std@@@2@XZ 00430ec0 f i MainFile.obj
 0002:0001af10       ?_Getal@?$_Vector_alloc@U?$_Vec_base_types@V?$Point_@M@cv@@V?$allocator@V?$Point_@M@cv@@@std@@@std@@@std@@QBEABU?$_Wrap_alloc@V?$allocator@V?$Point_@M@cv@@@std@@@2@XZ 00430f10 f i MainFile.obj
 0002:0001af60       ?_Getal@?$_Vector_alloc@U?$_Vec_base_types@V?$Vec@M$02@cv@@V?$allocator@V?$Vec@M$02@cv@@@std@@@std@@@std@@QAEAAU?$_Wrap_alloc@V?$allocator@V?$Vec@M$02@cv@@@std@@@2@XZ 00430f60 f i MainFile.obj
 0002:0001afb0       ?_Getal@?$_Vector_alloc@U?$_Vec_base_types@V?$basic_string@DU?$char_traits@D@std@@V?$allocator@D@2@@std@@V?$allocator@V?$basic_string@DU?$char_traits@D@std@@V?$allocator@D@2@@std@@@2@@std@@@std@@QAEAAU?$_Wrap_alloc@V?$allocator@V?$basic_string@DU?$char_traits@D@std@@V?$allocator@D@2@@std@@@std@@@2@XZ 00430fb0 f i MainFile.obj
 0002:0001b000       ?_Getal@?$_Vector_alloc@U?$_Vec_base_types@V?$basic_string@DU?$char_traits@D@std@@V?$allocator@D@2@@std@@V?$allocator@V?$basic_string@DU?$char_traits@D@std@@V?$allocator@D@2@@std@@@2@@std@@@std@@QBEABU?$_Wrap_alloc@V?$allocator@V?$basic_string@DU?$char_traits@D@std@@V?$allocator@D@2@@std@@@std@@@2@XZ 00431000 f i MainFile.obj
 0002:0001b050       ?_Getal@?$_Vector_alloc@U?$_Vec_base_types@V?$vector@V?$Point3_@M@cv@@V?$allocator@V?$Point3_@M@cv@@@std@@@std@@V?$allocator@V?$vector@V?$Point3_@M@cv@@V?$allocator@V?$Point3_@M@cv@@@std@@@std@@@2@@std@@@std@@QAEAAU?$_Wrap_alloc@V?$allocator@V?$vector@V?$Point3_@M@cv@@V?$allocator@V?$Point3_@M@cv@@@std@@@std@@@std@@@2@XZ 00431050 f i MainFile.obj
 0002:0001b0a0       ?_Getal@?$_Vector_alloc@U?$_Vec_base_types@V?$vector@V?$Point3_@M@cv@@V?$allocator@V?$Point3_@M@cv@@@std@@@std@@V?$allocator@V?$vector@V?$Point3_@M@cv@@V?$allocator@V?$Point3_@M@cv@@@std@@@std@@@2@@std@@@std@@QBEABU?$_Wrap_alloc@V?$allocator@V?$vector@V?$Point3_@M@cv@@V?$allocator@V?$Point3_@M@cv@@@std@@@std@@@std@@@2@XZ 004310a0 f i MainFile.obj
 0002:0001b0f0       ?_Getal@?$_Vector_alloc@U?$_Vec_base_types@V?$vector@V?$Point_@M@cv@@V?$allocator@V?$Point_@M@cv@@@std@@@std@@V?$allocator@V?$vector@V?$Point_@M@cv@@V?$allocator@V?$Point_@M@cv@@@std@@@std@@@2@@std@@@std@@QAEAAU?$_Wrap_alloc@V?$allocator@V?$vector@V?$Point_@M@cv@@V?$allocator@V?$Point_@M@cv@@@std@@@std@@@std@@@2@XZ 004310f0 f i MainFile.obj
 0002:0001b140       ?_Getal@?$_Vector_alloc@U?$_Vec_base_types@V?$vector@V?$Point_@M@cv@@V?$allocator@V?$Point_@M@cv@@@std@@@std@@V?$allocator@V?$vector@V?$Point_@M@cv@@V?$allocator@V?$Point_@M@cv@@@std@@@std@@@2@@std@@@std@@QBEABU?$_Wrap_alloc@V?$allocator@V?$vector@V?$Point_@M@cv@@V?$allocator@V?$Point_@M@cv@@@std@@@std@@@std@@@2@XZ 00431140 f i MainFile.obj
 0002:0001b190       ?_Getcont@_Iterator_base12@std@@QBEPBU_Container_base12@2@XZ 00431190 f i MainFile.obj
 0002:0001b200       ?_Getpfirst@?$_Vector_alloc@U?$_Vec_base_types@V?$Point3_@M@cv@@V?$allocator@V?$Point3_@M@cv@@@std@@@std@@@std@@QBEPAPAU_Iterator_base12@2@XZ 00431200 f i MainFile.obj
 0002:0001b260       ?_Getpfirst@?$_Vector_alloc@U?$_Vec_base_types@V?$Point_@M@cv@@V?$allocator@V?$Point_@M@cv@@@std@@@std@@@std@@QBEPAPAU_Iterator_base12@2@XZ 00431260 f i MainFile.obj
 0002:0001b2c0       ?_Getpfirst@?$_Vector_alloc@U?$_Vec_base_types@V?$basic_string@DU?$char_traits@D@std@@V?$allocator@D@2@@std@@V?$allocator@V?$basic_string@DU?$char_traits@D@std@@V?$allocator@D@2@@std@@@2@@std@@@std@@QBEPAPAU_Iterator_base12@2@XZ 004312c0 f i MainFile.obj
 0002:0001b320       ?_Getpfirst@?$_Vector_alloc@U?$_Vec_base_types@V?$vector@V?$Point3_@M@cv@@V?$allocator@V?$Point3_@M@cv@@@std@@@std@@V?$allocator@V?$vector@V?$Point3_@M@cv@@V?$allocator@V?$Point3_@M@cv@@@std@@@std@@@2@@std@@@std@@QBEPAPAU_Iterator_base12@2@XZ 00431320 f i MainFile.obj
 0002:0001b380       ?_Getpfirst@?$_Vector_alloc@U?$_Vec_base_types@V?$vector@V?$Point_@M@cv@@V?$allocator@V?$Point_@M@cv@@@std@@@std@@V?$allocator@V?$vector@V?$Point_@M@cv@@V?$allocator@V?$Point_@M@cv@@@std@@@std@@@2@@std@@@std@@QBEPAPAU_Iterator_base12@2@XZ 00431380 f i MainFile.obj
 0002:0001b3e0       ?_Getpfirst@_Container_base12@std@@QBEPAPAU_Iterator_base12@2@XZ 004313e0 f i MainFile.obj
 0002:0001b450       ?_Getpnext@_Iterator_base12@std@@QAEPAPAU12@XZ 00431450 f i MainFile.obj
 0002:0001b490       ?_Grow@?$basic_string@DU?$char_traits@D@std@@V?$allocator@D@2@@std@@QAE_NI_N@Z 00431490 f i MainFile.obj
 0002:0001b5c0       ?_Grow_to@?$vector@V?$Point3_@M@cv@@V?$allocator@V?$Point3_@M@cv@@@std@@@std@@IBEII@Z 004315c0 f i MainFile.obj
 0002:0001b670       ?_Grow_to@?$vector@V?$Point_@M@cv@@V?$allocator@V?$Point_@M@cv@@@std@@@std@@IBEII@Z 00431670 f i MainFile.obj
 0002:0001b720       ?_Grow_to@?$vector@V?$basic_string@DU?$char_traits@D@std@@V?$allocator@D@2@@std@@V?$allocator@V?$basic_string@DU?$char_traits@D@std@@V?$allocator@D@2@@std@@@2@@std@@IBEII@Z 00431720 f i MainFile.obj
 0002:0001b7d0       ?_Grow_to@?$vector@V?$vector@V?$Point3_@M@cv@@V?$allocator@V?$Point3_@M@cv@@@std@@@std@@V?$allocator@V?$vector@V?$Point3_@M@cv@@V?$allocator@V?$Point3_@M@cv@@@std@@@std@@@2@@std@@IBEII@Z 004317d0 f i MainFile.obj
 0002:0001b880       ?_Grow_to@?$vector@V?$vector@V?$Point_@M@cv@@V?$allocator@V?$Point_@M@cv@@@std@@@std@@V?$allocator@V?$vector@V?$Point_@M@cv@@V?$allocator@V?$Point_@M@cv@@@std@@@std@@@2@@std@@IBEII@Z 00431880 f i MainFile.obj
 0002:0001b930       ?_Inside@?$basic_string@DU?$char_traits@D@std@@V?$allocator@D@2@@std@@QAE_NPBD@Z 00431930 f i MainFile.obj
 0002:0001b9c0       ?_Inside@?$vector@V?$Point3_@M@cv@@V?$allocator@V?$Point3_@M@cv@@@std@@@std@@IBE_NPBV?$Point3_@M@cv@@@Z 004319c0 f i MainFile.obj
 0002:0001ba50       ?_Inside@?$vector@V?$Point_@M@cv@@V?$allocator@V?$Point_@M@cv@@@std@@@std@@IBE_NPBV?$Point_@M@cv@@@Z 00431a50 f i MainFile.obj
 0002:0001bae0       ?_Inside@?$vector@V?$basic_string@DU?$char_traits@D@std@@V?$allocator@D@2@@std@@V?$allocator@V?$basic_string@DU?$char_traits@D@std@@V?$allocator@D@2@@std@@@2@@std@@IBE_NPBV?$basic_string@DU?$char_traits@D@std@@V?$allocator@D@2@@2@@Z 00431ae0 f i MainFile.obj
 0002:0001bb70       ?_Myend@?$_Vector_alloc@U?$_Vec_base_types@V?$Point3_@M@cv@@V?$allocator@V?$Point3_@M@cv@@@std@@@std@@@std@@QAEAAPAV?$Point3_@M@cv@@XZ 00431b70 f i MainFile.obj
 0002:0001bbd0       ?_Myend@?$_Vector_alloc@U?$_Vec_base_types@V?$Point3_@M@cv@@V?$allocator@V?$Point3_@M@cv@@@std@@@std@@@std@@QBEABQAV?$Point3_@M@cv@@XZ 00431bd0 f i MainFile.obj
 0002:0001bc30       ?_Myend@?$_Vector_alloc@U?$_Vec_base_types@V?$Point_@M@cv@@V?$allocator@V?$Point_@M@cv@@@std@@@std@@@std@@QAEAAPAV?$Point_@M@cv@@XZ 00431c30 f i MainFile.obj
 0002:0001bc90       ?_Myend@?$_Vector_alloc@U?$_Vec_base_types@V?$Point_@M@cv@@V?$allocator@V?$Point_@M@cv@@@std@@@std@@@std@@QBEABQAV?$Point_@M@cv@@XZ 00431c90 f i MainFile.obj
 0002:0001bcf0       ?_Myend@?$_Vector_alloc@U?$_Vec_base_types@V?$Vec@M$02@cv@@V?$allocator@V?$Vec@M$02@cv@@@std@@@std@@@std@@QAEAAPAV?$Vec@M$02@cv@@XZ 00431cf0 f i MainFile.obj
 0002:0001bd50       ?_Myend@?$_Vector_alloc@U?$_Vec_base_types@V?$basic_string@DU?$char_traits@D@std@@V?$allocator@D@2@@std@@V?$allocator@V?$basic_string@DU?$char_traits@D@std@@V?$allocator@D@2@@std@@@2@@std@@@std@@QAEAAPAV?$basic_string@DU?$char_traits@D@std@@V?$allocator@D@2@@2@XZ 00431d50 f i MainFile.obj
 0002:0001bdb0       ?_Myend@?$_Vector_alloc@U?$_Vec_base_types@V?$basic_string@DU?$char_traits@D@std@@V?$allocator@D@2@@std@@V?$allocator@V?$basic_string@DU?$char_traits@D@std@@V?$allocator@D@2@@std@@@2@@std@@@std@@QBEABQAV?$basic_string@DU?$char_traits@D@std@@V?$allocator@D@2@@2@XZ 00431db0 f i MainFile.obj
 0002:0001be10       ?_Myend@?$_Vector_alloc@U?$_Vec_base_types@V?$vector@V?$Point3_@M@cv@@V?$allocator@V?$Point3_@M@cv@@@std@@@std@@V?$allocator@V?$vector@V?$Point3_@M@cv@@V?$allocator@V?$Point3_@M@cv@@@std@@@std@@@2@@std@@@std@@QAEAAPAV?$vector@V?$Point3_@M@cv@@V?$allocator@V?$Point3_@M@cv@@@std@@@2@XZ 00431e10 f i MainFile.obj
 0002:0001be70       ?_Myend@?$_Vector_alloc@U?$_Vec_base_types@V?$vector@V?$Point3_@M@cv@@V?$allocator@V?$Point3_@M@cv@@@std@@@std@@V?$allocator@V?$vector@V?$Point3_@M@cv@@V?$allocator@V?$Point3_@M@cv@@@std@@@std@@@2@@std@@@std@@QBEABQAV?$vector@V?$Point3_@M@cv@@V?$allocator@V?$Point3_@M@cv@@@std@@@2@XZ 00431e70 f i MainFile.obj
 0002:0001bed0       ?_Myend@?$_Vector_alloc@U?$_Vec_base_types@V?$vector@V?$Point_@M@cv@@V?$allocator@V?$Point_@M@cv@@@std@@@std@@V?$allocator@V?$vector@V?$Point_@M@cv@@V?$allocator@V?$Point_@M@cv@@@std@@@std@@@2@@std@@@std@@QAEAAPAV?$vector@V?$Point_@M@cv@@V?$allocator@V?$Point_@M@cv@@@std@@@2@XZ 00431ed0 f i MainFile.obj
 0002:0001bf30       ?_Myend@?$_Vector_alloc@U?$_Vec_base_types@V?$vector@V?$Point_@M@cv@@V?$allocator@V?$Point_@M@cv@@@std@@@std@@V?$allocator@V?$vector@V?$Point_@M@cv@@V?$allocator@V?$Point_@M@cv@@@std@@@std@@@2@@std@@@std@@QBEABQAV?$vector@V?$Point_@M@cv@@V?$allocator@V?$Point_@M@cv@@@std@@@2@XZ 00431f30 f i MainFile.obj
 0002:0001bf90       ?_Myfirst@?$_Vector_alloc@U?$_Vec_base_types@V?$Point3_@M@cv@@V?$allocator@V?$Point3_@M@cv@@@std@@@std@@@std@@QAEAAPAV?$Point3_@M@cv@@XZ 00431f90 f i MainFile.obj
 0002:0001bff0       ?_Myfirst@?$_Vector_alloc@U?$_Vec_base_types@V?$Point3_@M@cv@@V?$allocator@V?$Point3_@M@cv@@@std@@@std@@@std@@QBEABQAV?$Point3_@M@cv@@XZ 00431ff0 f i MainFile.obj
 0002:0001c050       ?_Myfirst@?$_Vector_alloc@U?$_Vec_base_types@V?$Point_@M@cv@@V?$allocator@V?$Point_@M@cv@@@std@@@std@@@std@@QAEAAPAV?$Point_@M@cv@@XZ 00432050 f i MainFile.obj
 0002:0001c0b0       ?_Myfirst@?$_Vector_alloc@U?$_Vec_base_types@V?$Point_@M@cv@@V?$allocator@V?$Point_@M@cv@@@std@@@std@@@std@@QBEABQAV?$Point_@M@cv@@XZ 004320b0 f i MainFile.obj
 0002:0001c110       ?_Myfirst@?$_Vector_alloc@U?$_Vec_base_types@V?$Vec@M$02@cv@@V?$allocator@V?$Vec@M$02@cv@@@std@@@std@@@std@@QAEAAPAV?$Vec@M$02@cv@@XZ 00432110 f i MainFile.obj
 0002:0001c170       ?_Myfirst@?$_Vector_alloc@U?$_Vec_base_types@V?$Vec@M$02@cv@@V?$allocator@V?$Vec@M$02@cv@@@std@@@std@@@std@@QBEABQAV?$Vec@M$02@cv@@XZ 00432170 f i MainFile.obj
 0002:0001c1d0       ?_Myfirst@?$_Vector_alloc@U?$_Vec_base_types@V?$basic_string@DU?$char_traits@D@std@@V?$allocator@D@2@@std@@V?$allocator@V?$basic_string@DU?$char_traits@D@std@@V?$allocator@D@2@@std@@@2@@std@@@std@@QAEAAPAV?$basic_string@DU?$char_traits@D@std@@V?$allocator@D@2@@2@XZ 004321d0 f i MainFile.obj
 0002:0001c230       ?_Myfirst@?$_Vector_alloc@U?$_Vec_base_types@V?$basic_string@DU?$char_traits@D@std@@V?$allocator@D@2@@std@@V?$allocator@V?$basic_string@DU?$char_traits@D@std@@V?$allocator@D@2@@std@@@2@@std@@@std@@QBEABQAV?$basic_string@DU?$char_traits@D@std@@V?$allocator@D@2@@2@XZ 00432230 f i MainFile.obj
 0002:0001c290       ?_Myfirst@?$_Vector_alloc@U?$_Vec_base_types@V?$vector@V?$Point3_@M@cv@@V?$allocator@V?$Point3_@M@cv@@@std@@@std@@V?$allocator@V?$vector@V?$Point3_@M@cv@@V?$allocator@V?$Point3_@M@cv@@@std@@@std@@@2@@std@@@std@@QAEAAPAV?$vector@V?$Point3_@M@cv@@V?$allocator@V?$Point3_@M@cv@@@std@@@2@XZ 00432290 f i MainFile.obj
 0002:0001c2f0       ?_Myfirst@?$_Vector_alloc@U?$_Vec_base_types@V?$vector@V?$Point3_@M@cv@@V?$allocator@V?$Point3_@M@cv@@@std@@@std@@V?$allocator@V?$vector@V?$Point3_@M@cv@@V?$allocator@V?$Point3_@M@cv@@@std@@@std@@@2@@std@@@std@@QBEABQAV?$vector@V?$Point3_@M@cv@@V?$allocator@V?$Point3_@M@cv@@@std@@@2@XZ 004322f0 f i MainFile.obj
 0002:0001c350       ?_Myfirst@?$_Vector_alloc@U?$_Vec_base_types@V?$vector@V?$Point_@M@cv@@V?$allocator@V?$Point_@M@cv@@@std@@@std@@V?$allocator@V?$vector@V?$Point_@M@cv@@V?$allocator@V?$Point_@M@cv@@@std@@@std@@@2@@std@@@std@@QAEAAPAV?$vector@V?$Point_@M@cv@@V?$allocator@V?$Point_@M@cv@@@std@@@2@XZ 00432350 f i MainFile.obj
 0002:0001c3b0       ?_Myfirst@?$_Vector_alloc@U?$_Vec_base_types@V?$vector@V?$Point_@M@cv@@V?$allocator@V?$Point_@M@cv@@@std@@@std@@V?$allocator@V?$vector@V?$Point_@M@cv@@V?$allocator@V?$Point_@M@cv@@@std@@@std@@@2@@std@@@std@@QBEABQAV?$vector@V?$Point_@M@cv@@V?$allocator@V?$Point_@M@cv@@@std@@@2@XZ 004323b0 f i MainFile.obj
 0002:0001c410       ?_Mylast@?$_Vector_alloc@U?$_Vec_base_types@V?$Point3_@M@cv@@V?$allocator@V?$Point3_@M@cv@@@std@@@std@@@std@@QAEAAPAV?$Point3_@M@cv@@XZ 00432410 f i MainFile.obj
 0002:0001c470       ?_Mylast@?$_Vector_alloc@U?$_Vec_base_types@V?$Point3_@M@cv@@V?$allocator@V?$Point3_@M@cv@@@std@@@std@@@std@@QBEABQAV?$Point3_@M@cv@@XZ 00432470 f i MainFile.obj
 0002:0001c4d0       ?_Mylast@?$_Vector_alloc@U?$_Vec_base_types@V?$Point_@M@cv@@V?$allocator@V?$Point_@M@cv@@@std@@@std@@@std@@QAEAAPAV?$Point_@M@cv@@XZ 004324d0 f i MainFile.obj
 0002:0001c530       ?_Mylast@?$_Vector_alloc@U?$_Vec_base_types@V?$Point_@M@cv@@V?$allocator@V?$Point_@M@cv@@@std@@@std@@@std@@QBEABQAV?$Point_@M@cv@@XZ 00432530 f i MainFile.obj
 0002:0001c590       ?_Mylast@?$_Vector_alloc@U?$_Vec_base_types@V?$Vec@M$02@cv@@V?$allocator@V?$Vec@M$02@cv@@@std@@@std@@@std@@QAEAAPAV?$Vec@M$02@cv@@XZ 00432590 f i MainFile.obj
 0002:0001c5f0       ?_Mylast@?$_Vector_alloc@U?$_Vec_base_types@V?$Vec@M$02@cv@@V?$allocator@V?$Vec@M$02@cv@@@std@@@std@@@std@@QBEABQAV?$Vec@M$02@cv@@XZ 004325f0 f i MainFile.obj
 0002:0001c650       ?_Mylast@?$_Vector_alloc@U?$_Vec_base_types@V?$basic_string@DU?$char_traits@D@std@@V?$allocator@D@2@@std@@V?$allocator@V?$basic_string@DU?$char_traits@D@std@@V?$allocator@D@2@@std@@@2@@std@@@std@@QAEAAPAV?$basic_string@DU?$char_traits@D@std@@V?$allocator@D@2@@2@XZ 00432650 f i MainFile.obj
 0002:0001c6b0       ?_Mylast@?$_Vector_alloc@U?$_Vec_base_types@V?$basic_string@DU?$char_traits@D@std@@V?$allocator@D@2@@std@@V?$allocator@V?$basic_string@DU?$char_traits@D@std@@V?$allocator@D@2@@std@@@2@@std@@@std@@QBEABQAV?$basic_string@DU?$char_traits@D@std@@V?$allocator@D@2@@2@XZ 004326b0 f i MainFile.obj
 0002:0001c710       ?_Mylast@?$_Vector_alloc@U?$_Vec_base_types@V?$vector@V?$Point3_@M@cv@@V?$allocator@V?$Point3_@M@cv@@@std@@@std@@V?$allocator@V?$vector@V?$Point3_@M@cv@@V?$allocator@V?$Point3_@M@cv@@@std@@@std@@@2@@std@@@std@@QAEAAPAV?$vector@V?$Point3_@M@cv@@V?$allocator@V?$Point3_@M@cv@@@std@@@2@XZ 00432710 f i MainFile.obj
 0002:0001c770       ?_Mylast@?$_Vector_alloc@U?$_Vec_base_types@V?$vector@V?$Point3_@M@cv@@V?$allocator@V?$Point3_@M@cv@@@std@@@std@@V?$allocator@V?$vector@V?$Point3_@M@cv@@V?$allocator@V?$Point3_@M@cv@@@std@@@std@@@2@@std@@@std@@QBEABQAV?$vector@V?$Point3_@M@cv@@V?$allocator@V?$Point3_@M@cv@@@std@@@2@XZ 00432770 f i MainFile.obj
 0002:0001c7d0       ?_Mylast@?$_Vector_alloc@U?$_Vec_base_types@V?$vector@V?$Point_@M@cv@@V?$allocator@V?$Point_@M@cv@@@std@@@std@@V?$allocator@V?$vector@V?$Point_@M@cv@@V?$allocator@V?$Point_@M@cv@@@std@@@std@@@2@@std@@@std@@QAEAAPAV?$vector@V?$Point_@M@cv@@V?$allocator@V?$Point_@M@cv@@@std@@@2@XZ 004327d0 f i MainFile.obj
 0002:0001c830       ?_Mylast@?$_Vector_alloc@U?$_Vec_base_types@V?$vector@V?$Point_@M@cv@@V?$allocator@V?$Point_@M@cv@@@std@@@std@@V?$allocator@V?$vector@V?$Point_@M@cv@@V?$allocator@V?$Point_@M@cv@@@std@@@std@@@2@@std@@@std@@QBEABQAV?$vector@V?$Point_@M@cv@@V?$allocator@V?$Point_@M@cv@@@std@@@2@XZ 00432830 f i MainFile.obj
 0002:0001c890       ?_Myproxy@?$_String_alloc@U?$_String_base_types@DV?$allocator@D@std@@@std@@@std@@QAEAAPAU_Container_proxy@2@XZ 00432890 f i MainFile.obj
 0002:0001c8e0       ?_Myproxy@?$_Vector_alloc@U?$_Vec_base_types@V?$Point3_@M@cv@@V?$allocator@V?$Point3_@M@cv@@@std@@@std@@@std@@QAEAAPAU_Container_proxy@2@XZ 004328e0 f i MainFile.obj
 0002:0001c930       ?_Myproxy@?$_Vector_alloc@U?$_Vec_base_types@V?$Point_@M@cv@@V?$allocator@V?$Point_@M@cv@@@std@@@std@@@std@@QAEAAPAU_Container_proxy@2@XZ 00432930 f i MainFile.obj
 0002:0001c980       ?_Myproxy@?$_Vector_alloc@U?$_Vec_base_types@V?$Vec@M$02@cv@@V?$allocator@V?$Vec@M$02@cv@@@std@@@std@@@std@@QAEAAPAU_Container_proxy@2@XZ 00432980 f i MainFile.obj
 0002:0001c9d0       ?_Myproxy@?$_Vector_alloc@U?$_Vec_base_types@V?$basic_string@DU?$char_traits@D@std@@V?$allocator@D@2@@std@@V?$allocator@V?$basic_string@DU?$char_traits@D@std@@V?$allocator@D@2@@std@@@2@@std@@@std@@QAEAAPAU_Container_proxy@2@XZ 004329d0 f i MainFile.obj
 0002:0001ca20       ?_Myproxy@?$_Vector_alloc@U?$_Vec_base_types@V?$vector@V?$Point3_@M@cv@@V?$allocator@V?$Point3_@M@cv@@@std@@@std@@V?$allocator@V?$vector@V?$Point3_@M@cv@@V?$allocator@V?$Point3_@M@cv@@@std@@@std@@@2@@std@@@std@@QAEAAPAU_Container_proxy@2@XZ 00432a20 f i MainFile.obj
 0002:0001ca70       ?_Myproxy@?$_Vector_alloc@U?$_Vec_base_types@V?$vector@V?$Point_@M@cv@@V?$allocator@V?$Point_@M@cv@@@std@@@std@@V?$allocator@V?$vector@V?$Point_@M@cv@@V?$allocator@V?$Point_@M@cv@@@std@@@std@@@2@@std@@@std@@QAEAAPAU_Container_proxy@2@XZ 00432a70 f i MainFile.obj
 0002:0001cac0       ?_Myptr@?$_String_alloc@U?$_String_base_types@DV?$allocator@D@std@@@std@@@std@@QAEPADXZ 00432ac0 f i MainFile.obj
 0002:0001cb20       ?_Myptr@?$_String_alloc@U?$_String_base_types@DV?$allocator@D@std@@@std@@@std@@QBEPBDXZ 00432b20 f i MainFile.obj
 0002:0001cb80       ?_Myptr@?$_String_val@U?$_Simple_types@D@std@@@std@@QAEPADXZ 00432b80 f i MainFile.obj
 0002:0001cc10       ?_Myptr@?$_String_val@U?$_Simple_types@D@std@@@std@@QBEPBDXZ 00432c10 f i MainFile.obj
 0002:0001cca0       ?_Myres@?$_String_alloc@U?$_String_base_types@DV?$allocator@D@std@@@std@@@std@@QAEAAIXZ 00432ca0 f i MainFile.obj
 0002:0001cd00       ?_Mysize@?$_String_alloc@U?$_String_base_types@DV?$allocator@D@std@@@std@@@std@@QAEAAIXZ 00432d00 f i MainFile.obj
 0002:0001cd60       ?_Mysize@?$_String_alloc@U?$_String_base_types@DV?$allocator@D@std@@@std@@@std@@QBEABIXZ 00432d60 f i MainFile.obj
 0002:0001cdc0       ?_Orphan_all@?$_String_alloc@U?$_String_base_types@DV?$allocator@D@std@@@std@@@std@@QAEXXZ 00432dc0 f i MainFile.obj
 0002:0001ce20       ?_Orphan_all@?$_Vector_alloc@U?$_Vec_base_types@V?$Point3_@M@cv@@V?$allocator@V?$Point3_@M@cv@@@std@@@std@@@std@@QAEXXZ 00432e20 f i MainFile.obj
 0002:0001ce80       ?_Orphan_all@?$_Vector_alloc@U?$_Vec_base_types@V?$Point_@M@cv@@V?$allocator@V?$Point_@M@cv@@@std@@@std@@@std@@QAEXXZ 00432e80 f i MainFile.obj
 0002:0001cee0       ?_Orphan_all@?$_Vector_alloc@U?$_Vec_base_types@V?$Vec@M$02@cv@@V?$allocator@V?$Vec@M$02@cv@@@std@@@std@@@std@@QAEXXZ 00432ee0 f i MainFile.obj
 0002:0001cf40       ?_Orphan_all@?$_Vector_alloc@U?$_Vec_base_types@V?$basic_string@DU?$char_traits@D@std@@V?$allocator@D@2@@std@@V?$allocator@V?$basic_string@DU?$char_traits@D@std@@V?$allocator@D@2@@std@@@2@@std@@@std@@QAEXXZ 00432f40 f i MainFile.obj
 0002:0001cfa0       ?_Orphan_all@?$_Vector_alloc@U?$_Vec_base_types@V?$vector@V?$Point3_@M@cv@@V?$allocator@V?$Point3_@M@cv@@@std@@@std@@V?$allocator@V?$vector@V?$Point3_@M@cv@@V?$allocator@V?$Point3_@M@cv@@@std@@@std@@@2@@std@@@std@@QAEXXZ 00432fa0 f i MainFile.obj
 0002:0001d000       ?_Orphan_all@?$_Vector_alloc@U?$_Vec_base_types@V?$vector@V?$Point_@M@cv@@V?$allocator@V?$Point_@M@cv@@@std@@@std@@V?$allocator@V?$vector@V?$Point_@M@cv@@V?$allocator@V?$Point_@M@cv@@@std@@@std@@@2@@std@@@std@@QAEXXZ 00433000 f i MainFile.obj
 0002:0001d060       ?_Orphan_all@_Container_base12@std@@QAEXXZ 00433060 f i MainFile.obj
 0002:0001d180       ?_Orphan_me@_Iterator_base12@std@@QAEXXZ 00433180 f i MainFile.obj
 0002:0001d250       ?_Orphan_range@?$vector@V?$Point3_@M@cv@@V?$allocator@V?$Point3_@M@cv@@@std@@@std@@IBEXPAV?$Point3_@M@cv@@0@Z 00433250 f i MainFile.obj
 0002:0001d3d0       ?_Orphan_range@?$vector@V?$Point_@M@cv@@V?$allocator@V?$Point_@M@cv@@@std@@@std@@IBEXPAV?$Point_@M@cv@@0@Z 004333d0 f i MainFile.obj
 0002:0001d550       ?_Orphan_range@?$vector@V?$basic_string@DU?$char_traits@D@std@@V?$allocator@D@2@@std@@V?$allocator@V?$basic_string@DU?$char_traits@D@std@@V?$allocator@D@2@@std@@@2@@std@@IBEXPAV?$basic_string@DU?$char_traits@D@std@@V?$allocator@D@2@@2@0@Z 00433550 f i MainFile.obj
 0002:0001d6d0       ?_Orphan_range@?$vector@V?$vector@V?$Point3_@M@cv@@V?$allocator@V?$Point3_@M@cv@@@std@@@std@@V?$allocator@V?$vector@V?$Point3_@M@cv@@V?$allocator@V?$Point3_@M@cv@@@std@@@std@@@2@@std@@IBEXPAV?$vector@V?$Point3_@M@cv@@V?$allocator@V?$Point3_@M@cv@@@std@@@2@0@Z 004336d0 f i MainFile.obj
 0002:0001d850       ?_Orphan_range@?$vector@V?$vector@V?$Point_@M@cv@@V?$allocator@V?$Point_@M@cv@@@std@@@std@@V?$allocator@V?$vector@V?$Point_@M@cv@@V?$allocator@V?$Point_@M@cv@@@std@@@std@@@2@@std@@IBEXPAV?$vector@V?$Point_@M@cv@@V?$allocator@V?$Point_@M@cv@@@std@@@2@0@Z 00433850 f i MainFile.obj
 0002:0001d9d0       ?_Pop_back_n@?$vector@V?$basic_string@DU?$char_traits@D@std@@V?$allocator@D@2@@std@@V?$allocator@V?$basic_string@DU?$char_traits@D@std@@V?$allocator@D@2@@std@@@2@@std@@QAEXI@Z 004339d0 f i MainFile.obj
 0002:0001da80       ?_Pop_back_n@?$vector@V?$vector@V?$Point3_@M@cv@@V?$allocator@V?$Point3_@M@cv@@@std@@@std@@V?$allocator@V?$vector@V?$Point3_@M@cv@@V?$allocator@V?$Point3_@M@cv@@@std@@@std@@@2@@std@@QAEXI@Z 00433a80 f i MainFile.obj
 0002:0001db30       ?_Pop_back_n@?$vector@V?$vector@V?$Point_@M@cv@@V?$allocator@V?$Point_@M@cv@@@std@@@std@@V?$allocator@V?$vector@V?$Point_@M@cv@@V?$allocator@V?$Point_@M@cv@@@std@@@std@@@2@@std@@QAEXI@Z 00433b30 f i MainFile.obj
 0002:0001dbe0       ?_Reallocate@?$vector@V?$Point3_@M@cv@@V?$allocator@V?$Point3_@M@cv@@@std@@@std@@IAEXI@Z 00433be0 f i MainFile.obj
 0002:0001ddd0       ?_Reallocate@?$vector@V?$Point_@M@cv@@V?$allocator@V?$Point_@M@cv@@@std@@@std@@IAEXI@Z 00433dd0 f i MainFile.obj
 0002:0001dfc0       ?_Reallocate@?$vector@V?$basic_string@DU?$char_traits@D@std@@V?$allocator@D@2@@std@@V?$allocator@V?$basic_string@DU?$char_traits@D@std@@V?$allocator@D@2@@std@@@2@@std@@IAEXI@Z 00433fc0 f i MainFile.obj
 0002:0001e1b0       ?_Reallocate@?$vector@V?$vector@V?$Point3_@M@cv@@V?$allocator@V?$Point3_@M@cv@@@std@@@std@@V?$allocator@V?$vector@V?$Point3_@M@cv@@V?$allocator@V?$Point3_@M@cv@@@std@@@std@@@2@@std@@IAEXI@Z 004341b0 f i MainFile.obj
 0002:0001e3a0       ?_Reallocate@?$vector@V?$vector@V?$Point_@M@cv@@V?$allocator@V?$Point_@M@cv@@@std@@@std@@V?$allocator@V?$vector@V?$Point_@M@cv@@V?$allocator@V?$Point_@M@cv@@@std@@@std@@@2@@std@@IAEXI@Z 004343a0 f i MainFile.obj
 0002:0001e590       ?_Reserve@?$vector@V?$Point3_@M@cv@@V?$allocator@V?$Point3_@M@cv@@@std@@@std@@IAEXI@Z 00434590 f i MainFile.obj
 0002:0001e640       ?_Reserve@?$vector@V?$Point_@M@cv@@V?$allocator@V?$Point_@M@cv@@@std@@@std@@IAEXI@Z 00434640 f i MainFile.obj
 0002:0001e6f0       ?_Reserve@?$vector@V?$basic_string@DU?$char_traits@D@std@@V?$allocator@D@2@@std@@V?$allocator@V?$basic_string@DU?$char_traits@D@std@@V?$allocator@D@2@@std@@@2@@std@@IAEXI@Z 004346f0 f i MainFile.obj
 0002:0001e7a0       ?_Reserve@?$vector@V?$vector@V?$Point3_@M@cv@@V?$allocator@V?$Point3_@M@cv@@@std@@@std@@V?$allocator@V?$vector@V?$Point3_@M@cv@@V?$allocator@V?$Point3_@M@cv@@@std@@@std@@@2@@std@@IAEXI@Z 004347a0 f i MainFile.obj
 0002:0001e850       ?_Reserve@?$vector@V?$vector@V?$Point_@M@cv@@V?$allocator@V?$Point_@M@cv@@@std@@@std@@V?$allocator@V?$vector@V?$Point_@M@cv@@V?$allocator@V?$Point_@M@cv@@@std@@@std@@@2@@std@@IAEXI@Z 00434850 f i MainFile.obj
 0002:0001e900       ?_Swap_all@?$_Vector_alloc@U?$_Vec_base_types@V?$Point3_@M@cv@@V?$allocator@V?$Point3_@M@cv@@@std@@@std@@@std@@QAEXAAV12@@Z 00434900 f i MainFile.obj
 0002:0001e970       ?_Swap_all@?$_Vector_alloc@U?$_Vec_base_types@V?$Point_@M@cv@@V?$allocator@V?$Point_@M@cv@@@std@@@std@@@std@@QAEXAAV12@@Z 00434970 f i MainFile.obj
 0002:0001e9e0       ?_Swap_all@_Container_base12@std@@QAEXAAU12@@Z 004349e0 f i MainFile.obj
 0002:0001eb00       ?_Tidy@?$basic_string@DU?$char_traits@D@std@@V?$allocator@D@2@@std@@QAEX_NI@Z 00434b00 f i MainFile.obj
 0002:0001ec10       ?_Tidy@?$vector@V?$Point3_@M@cv@@V?$allocator@V?$Point3_@M@cv@@@std@@@std@@IAEXXZ 00434c10 f i MainFile.obj
 0002:0001ed20       ?_Tidy@?$vector@V?$Point_@M@cv@@V?$allocator@V?$Point_@M@cv@@@std@@@std@@IAEXXZ 00434d20 f i MainFile.obj
 0002:0001ee20       ?_Tidy@?$vector@V?$Vec@M$02@cv@@V?$allocator@V?$Vec@M$02@cv@@@std@@@std@@IAEXXZ 00434e20 f i MainFile.obj
 0002:0001ef30       ?_Tidy@?$vector@V?$basic_string@DU?$char_traits@D@std@@V?$allocator@D@2@@std@@V?$allocator@V?$basic_string@DU?$char_traits@D@std@@V?$allocator@D@2@@std@@@2@@std@@IAEXXZ 00434f30 f i MainFile.obj
 0002:0001f040       ?_Tidy@?$vector@V?$vector@V?$Point3_@M@cv@@V?$allocator@V?$Point3_@M@cv@@@std@@@std@@V?$allocator@V?$vector@V?$Point3_@M@cv@@V?$allocator@V?$Point3_@M@cv@@@std@@@std@@@2@@std@@IAEXXZ 00435040 f i MainFile.obj
 0002:0001f140       ?_Tidy@?$vector@V?$vector@V?$Point_@M@cv@@V?$allocator@V?$Point_@M@cv@@@std@@@std@@V?$allocator@V?$vector@V?$Point_@M@cv@@V?$allocator@V?$Point_@M@cv@@@std@@@std@@@2@@std@@IAEXXZ 00435140 f i MainFile.obj
 0002:0001f240       ?_Unchecked@?$_Vector_iterator@V?$_Vector_val@U?$_Simple_types@V?$Point_@M@cv@@@std@@@std@@@std@@QBEPAV?$Point_@M@cv@@XZ 00435240 f i MainFile.obj
 0002:0001f280       ?_Unused_capacity@?$vector@V?$Point3_@M@cv@@V?$allocator@V?$Point3_@M@cv@@@std@@@std@@QBEIXZ 00435280 f i MainFile.obj
 0002:0001f2f0       ?_Unused_capacity@?$vector@V?$Point_@M@cv@@V?$allocator@V?$Point_@M@cv@@@std@@@std@@QBEIXZ 004352f0 f i MainFile.obj
 0002:0001f360       ?_Unused_capacity@?$vector@V?$basic_string@DU?$char_traits@D@std@@V?$allocator@D@2@@std@@V?$allocator@V?$basic_string@DU?$char_traits@D@std@@V?$allocator@D@2@@std@@@2@@std@@QBEIXZ 00435360 f i MainFile.obj
 0002:0001f3d0       ?_Unused_capacity@?$vector@V?$vector@V?$Point3_@M@cv@@V?$allocator@V?$Point3_@M@cv@@@std@@@std@@V?$allocator@V?$vector@V?$Point3_@M@cv@@V?$allocator@V?$Point3_@M@cv@@@std@@@std@@@2@@std@@QBEIXZ 004353d0 f i MainFile.obj
 0002:0001f440       ?_Unused_capacity@?$vector@V?$vector@V?$Point_@M@cv@@V?$allocator@V?$Point_@M@cv@@@std@@@std@@V?$allocator@V?$vector@V?$Point_@M@cv@@V?$allocator@V?$Point_@M@cv@@@std@@@std@@@2@@std@@QBEIXZ 00435440 f i MainFile.obj
 0002:0001f4b0       ?_Xlen@?$basic_string@DU?$char_traits@D@std@@V?$allocator@D@2@@std@@QBEXXZ 004354b0 f i MainFile.obj
 0002:0001f510       ?_Xlen@?$vector@V?$Point3_@M@cv@@V?$allocator@V?$Point3_@M@cv@@@std@@@std@@IBEXXZ 00435510 f i MainFile.obj
 0002:0001f570       ?_Xlen@?$vector@V?$Point_@M@cv@@V?$allocator@V?$Point_@M@cv@@@std@@@std@@IBEXXZ 00435570 f i MainFile.obj
 0002:0001f5d0       ?_Xlen@?$vector@V?$basic_string@DU?$char_traits@D@std@@V?$allocator@D@2@@std@@V?$allocator@V?$basic_string@DU?$char_traits@D@std@@V?$allocator@D@2@@std@@@2@@std@@IBEXXZ 004355d0 f i MainFile.obj
 0002:0001f630       ?_Xlen@?$vector@V?$vector@V?$Point3_@M@cv@@V?$allocator@V?$Point3_@M@cv@@@std@@@std@@V?$allocator@V?$vector@V?$Point3_@M@cv@@V?$allocator@V?$Point3_@M@cv@@@std@@@std@@@2@@std@@IBEXXZ 00435630 f i MainFile.obj
 0002:0001f690       ?_Xlen@?$vector@V?$vector@V?$Point_@M@cv@@V?$allocator@V?$Point_@M@cv@@@std@@@std@@V?$allocator@V?$vector@V?$Point_@M@cv@@V?$allocator@V?$Point_@M@cv@@@std@@@std@@@2@@std@@IBEXXZ 00435690 f i MainFile.obj
 0002:0001f6f0       ?_Xran@?$basic_string@DU?$char_traits@D@std@@V?$allocator@D@2@@std@@QBEXXZ 004356f0 f i MainFile.obj
 0002:0001f750       ?__autoclassinit2@?$vector@V?$Point_@M@cv@@V?$allocator@V?$Point_@M@cv@@@std@@@std@@QAEXI@Z 00435750 f i MainFile.obj
 0002:0001f7b0       ?__autoclassinit2@?$vector@V?$basic_string@DU?$char_traits@D@std@@V?$allocator@D@2@@std@@V?$allocator@V?$basic_string@DU?$char_traits@D@std@@V?$allocator@D@2@@std@@@2@@std@@QAEXI@Z 004357b0 f i MainFile.obj
 0002:0001f810       ?__autoclassinit2@?$vector@V?$vector@V?$Point3_@M@cv@@V?$allocator@V?$Point3_@M@cv@@@std@@@std@@V?$allocator@V?$vector@V?$Point3_@M@cv@@V?$allocator@V?$Point3_@M@cv@@@std@@@std@@@2@@std@@QAEXI@Z 00435810 f i MainFile.obj
 0002:0001f870       ?__autoclassinit2@FileNode@cv@@QAEXI@Z 00435870 f i MainFile.obj
 0002:0001f8d0       ?__autoclassinit2@FileNodeIterator@cv@@QAEXI@Z 004358d0 f i MainFile.obj
 0002:0001f930       ?__autoclassinit2@FileStorage@cv@@QAEXI@Z 00435930 f i MainFile.obj
 0002:0001f990       ?__autoclassinit2@Mat@cv@@QAEXI@Z 00435990 f i MainFile.obj
 0002:0001fa20       ?__empty_global_delete@@YAXPAX@Z 00435a20 f i MainFile.obj
 0002:0001fa50       ?__empty_global_delete@@YAXPAXI@Z 00435a50 f i MainFile.obj
 0002:0001fab0       ?allocate@?$_Wrap_alloc@V?$allocator@D@std@@@std@@QAEPADI@Z 00435ab0 f i MainFile.obj
 0002:0001fb10       ?allocate@?$_Wrap_alloc@V?$allocator@U_Container_proxy@std@@@std@@@std@@QAEPAU_Container_proxy@2@I@Z 00435b10 f i MainFile.obj
 0002:0001fb70       ?allocate@?$_Wrap_alloc@V?$allocator@V?$Point3_@M@cv@@@std@@@std@@QAEPAV?$Point3_@M@cv@@I@Z 00435b70 f i MainFile.obj
 0002:0001fbd0       ?allocate@?$_Wrap_alloc@V?$allocator@V?$Point_@M@cv@@@std@@@std@@QAEPAV?$Point_@M@cv@@I@Z 00435bd0 f i MainFile.obj
 0002:0001fc30       ?allocate@?$_Wrap_alloc@V?$allocator@V?$basic_string@DU?$char_traits@D@std@@V?$allocator@D@2@@std@@@std@@@std@@QAEPAV?$basic_string@DU?$char_traits@D@std@@V?$allocator@D@2@@2@I@Z 00435c30 f i MainFile.obj
 0002:0001fc90       ?allocate@?$_Wrap_alloc@V?$allocator@V?$vector@V?$Point3_@M@cv@@V?$allocator@V?$Point3_@M@cv@@@std@@@std@@@std@@@std@@QAEPAV?$vector@V?$Point3_@M@cv@@V?$allocator@V?$Point3_@M@cv@@@std@@@2@I@Z 00435c90 f i MainFile.obj
 0002:0001fcf0       ?allocate@?$_Wrap_alloc@V?$allocator@V?$vector@V?$Point_@M@cv@@V?$allocator@V?$Point_@M@cv@@@std@@@std@@@std@@@std@@QAEPAV?$vector@V?$Point_@M@cv@@V?$allocator@V?$Point_@M@cv@@@std@@@2@I@Z 00435cf0 f i MainFile.obj
 0002:0001fd50       ?allocate@?$allocator@D@std@@QAEPADI@Z 00435d50 f i MainFile.obj
 0002:0001fdb0       ?allocate@?$allocator@U_Container_proxy@std@@@std@@QAEPAU_Container_proxy@2@I@Z 00435db0 f i MainFile.obj
 0002:0001fe10       ?allocate@?$allocator@V?$Point3_@M@cv@@@std@@QAEPAV?$Point3_@M@cv@@I@Z 00435e10 f i MainFile.obj
 0002:0001fe70       ?allocate@?$allocator@V?$Point_@M@cv@@@std@@QAEPAV?$Point_@M@cv@@I@Z 00435e70 f i MainFile.obj
 0002:0001fed0       ?allocate@?$allocator@V?$basic_string@DU?$char_traits@D@std@@V?$allocator@D@2@@std@@@std@@QAEPAV?$basic_string@DU?$char_traits@D@std@@V?$allocator@D@2@@2@I@Z 00435ed0 f i MainFile.obj
 0002:0001ff30       ?allocate@?$allocator@V?$vector@V?$Point3_@M@cv@@V?$allocator@V?$Point3_@M@cv@@@std@@@std@@@std@@QAEPAV?$vector@V?$Point3_@M@cv@@V?$allocator@V?$Point3_@M@cv@@@std@@@2@I@Z 00435f30 f i MainFile.obj
 0002:0001ff90       ?allocate@?$allocator@V?$vector@V?$Point_@M@cv@@V?$allocator@V?$Point_@M@cv@@@std@@@std@@@std@@QAEPAV?$vector@V?$Point_@M@cv@@V?$allocator@V?$Point_@M@cv@@@std@@@2@I@Z 00435f90 f i MainFile.obj
 0002:0001ffe0       ?assign@?$basic_string@DU?$char_traits@D@std@@V?$allocator@D@2@@std@@QAEAAV12@PBDI@Z 00435fe0 f i MainFile.obj
 0002:00020130       ?assign@?$basic_string@DU?$char_traits@D@std@@V?$allocator@D@2@@std@@QAEAAV12@PBD@Z 00436130 f i MainFile.obj
 0002:00020290       ?assign@?$char_traits@D@std@@SAXAADABD@Z 00436290 f i MainFile.obj
 0002:000203b0       ?begin@FileNode@cv@@QBE?AVFileNodeIterator@2@XZ 004363b0 f i MainFile.obj
 0002:00020440       ?c_str@?$basic_string@DU?$char_traits@D@std@@V?$allocator@D@2@@std@@QBEPBDXZ 00436440 f i MainFile.obj
 0002:000204b0       ?capacity@?$vector@V?$Point3_@M@cv@@V?$allocator@V?$Point3_@M@cv@@@std@@@std@@QBEIXZ 004364b0 f i MainFile.obj
 0002:00020520       ?capacity@?$vector@V?$Point_@M@cv@@V?$allocator@V?$Point_@M@cv@@@std@@@std@@QBEIXZ 00436520 f i MainFile.obj
 0002:00020590       ?capacity@?$vector@V?$basic_string@DU?$char_traits@D@std@@V?$allocator@D@2@@std@@V?$allocator@V?$basic_string@DU?$char_traits@D@std@@V?$allocator@D@2@@std@@@2@@std@@QBEIXZ 00436590 f i MainFile.obj
 0002:00020600       ?capacity@?$vector@V?$vector@V?$Point3_@M@cv@@V?$allocator@V?$Point3_@M@cv@@@std@@@std@@V?$allocator@V?$vector@V?$Point3_@M@cv@@V?$allocator@V?$Point3_@M@cv@@@std@@@std@@@2@@std@@QBEIXZ 00436600 f i MainFile.obj
 0002:000206c0       ?capture_10_calibration_stereo_images@@YAXXZ 004366c0 f   MainFile.obj
 0002:00020700       ?push_back@?$vector@V?$basic_string@DU?$char_traits@D@std@@V?$allocator@D@2@@std@@V?$allocator@V?$basic_string@DU?$char_traits@D@std@@V?$allocator@D@2@@std@@@2@@std@@QAEX$$QAV?$basic_string@DU?$char_traits@D@std@@V?$allocator@D@2@@2@@Z 00436700 f i MainFile.obj
 0002:00020980       ?select_on_container_copy_construction@?$allocator_traits@V?$allocator@D@std@@@std@@SA?AV?$allocator@D@2@ABV32@@Z 00436980 f i MainFile.obj
 0002:00020bd0       ?compare@?$basic_string@DU?$char_traits@D@std@@V?$allocator@D@2@@std@@QBEHPBD@Z 00436bd0 f i MainFile.obj
 0002:00020ca0       ?copy@?$char_traits@D@std@@SAPADPADPBDI@Z 00436ca0 f i MainFile.obj
 0002:00020ee0       ?deallocate@?$_Wrap_alloc@V?$allocator@D@std@@@std@@QAEXPADI@Z 00436ee0 f i MainFile.obj
 0002:00020f40       ?deallocate@?$_Wrap_alloc@V?$allocator@U_Container_proxy@std@@@std@@@std@@QAEXPAU_Container_proxy@2@I@Z 00436f40 f i MainFile.obj
 0002:00020fa0       ?deallocate@?$_Wrap_alloc@V?$allocator@V?$Point3_@M@cv@@@std@@@std@@QAEXPAV?$Point3_@M@cv@@I@Z 00436fa0 f i MainFile.obj
 0002:00021000       ?deallocate@?$_Wrap_alloc@V?$allocator@V?$Point_@M@cv@@@std@@@std@@QAEXPAV?$Point_@M@cv@@I@Z 00437000 f i MainFile.obj
 0002:00021060       ?deallocate@?$_Wrap_alloc@V?$allocator@V?$Vec@M$02@cv@@@std@@@std@@QAEXPAV?$Vec@M$02@cv@@I@Z 00437060 f i MainFile.obj
 0002:000210c0       ?deallocate@?$_Wrap_alloc@V?$allocator@V?$basic_string@DU?$char_traits@D@std@@V?$allocator@D@2@@std@@@std@@@std@@QAEXPAV?$basic_string@DU?$char_traits@D@std@@V?$allocator@D@2@@2@I@Z 004370c0 f i MainFile.obj
 0002:00021120       ?deallocate@?$_Wrap_alloc@V?$allocator@V?$vector@V?$Point3_@M@cv@@V?$allocator@V?$Point3_@M@cv@@@std@@@std@@@std@@@std@@QAEXPAV?$vector@V?$Point3_@M@cv@@V?$allocator@V?$Point3_@M@cv@@@std@@@2@I@Z 00437120 f i MainFile.obj
 0002:00021180       ?deallocate@?$_Wrap_alloc@V?$allocator@V?$vector@V?$Point_@M@cv@@V?$allocator@V?$Point_@M@cv@@@std@@@std@@@std@@@std@@QAEXPAV?$vector@V?$Point_@M@cv@@V?$allocator@V?$Point_@M@cv@@@std@@@2@I@Z 00437180 f i MainFile.obj
 0002:000211e0       ?deallocate@?$allocator@D@std@@QAEXPADI@Z 004371e0 f i MainFile.obj
 0002:00021240       ?deallocate@?$allocator@U_Container_proxy@std@@@std@@QAEXPAU_Container_proxy@2@I@Z 00437240 f i MainFile.obj
 0002:000212a0       ?deallocate@?$allocator@V?$Point3_@M@cv@@@std@@QAEXPAV?$Point3_@M@cv@@I@Z 004372a0 f i MainFile.obj
 0002:00021300       ?deallocate@?$allocator@V?$Point_@M@cv@@@std@@QAEXPAV?$Point_@M@cv@@I@Z 00437300 f i MainFile.obj
 0002:00021360       ?deallocate@?$allocator@V?$Vec@M$02@cv@@@std@@QAEXPAV?$Vec@M$02@cv@@I@Z 00437360 f i MainFile.obj
 0002:000213c0       ?deallocate@?$allocator@V?$basic_string@DU?$char_traits@D@std@@V?$allocator@D@2@@std@@@std@@QAEXPAV?$basic_string@DU?$char_traits@D@std@@V?$allocator@D@2@@2@I@Z 004373c0 f i MainFile.obj
 0002:00021420       ?deallocate@?$allocator@V?$vector@V?$Point3_@M@cv@@V?$allocator@V?$Point3_@M@cv@@@std@@@std@@@std@@QAEXPAV?$vector@V?$Point3_@M@cv@@V?$allocator@V?$Point3_@M@cv@@@std@@@2@I@Z 00437420 f i MainFile.obj
 0002:000214a0       ?deallocate@?$allocator@V?$vector@V?$Point_@M@cv@@V?$allocator@V?$Point_@M@cv@@@std@@@std@@@std@@QAEXPAV?$vector@V?$Point_@M@cv@@V?$allocator@V?$Point_@M@cv@@@std@@@2@I@Z 004374a0 f i MainFile.obj
 0002:00021500       ?resize@?$vector@V?$vector@V?$Point3_@M@cv@@V?$allocator@V?$Point3_@M@cv@@@std@@@std@@V?$allocator@V?$vector@V?$Point3_@M@cv@@V?$allocator@V?$Point3_@M@cv@@@std@@@std@@@2@@std@@QAEXI@Z 00437500 f i MainFile.obj
 0002:000217f0       ?resize@?$vector@V?$vector@V?$Point_@M@cv@@V?$allocator@V?$Point_@M@cv@@@std@@@std@@V?$allocator@V?$vector@V?$Point_@M@cv@@V?$allocator@V?$Point_@M@cv@@@std@@@std@@@2@@std@@QAEXI@Z 004377f0 f i MainFile.obj
 0002:000219d0       ?select_on_container_copy_construction@?$_Wrap_alloc@V?$allocator@D@std@@@std@@QBE?AU12@U_Nil@2@@Z 004379d0 f i MainFile.obj
 0002:00021a30       ?set_controls_gui@@YAXQAH@Z 00437a30 f   MainFile.obj
 0002:00021ce0       ?elemSize1@Mat@cv@@QBEIXZ  00437ce0 f i MainFile.obj
 0002:00021d70       ?empty@?$basic_string@DU?$char_traits@D@std@@V?$allocator@D@2@@std@@QBE_NXZ 00437d70 f i MainFile.obj
 0002:00021e00       ?empty@?$vector@V?$Point_@M@cv@@V?$allocator@V?$Point_@M@cv@@@std@@@std@@QBE_NXZ 00437e00 f i MainFile.obj
 0002:00021e90       ?empty@?$vector@V?$basic_string@DU?$char_traits@D@std@@V?$allocator@D@2@@std@@V?$allocator@V?$basic_string@DU?$char_traits@D@std@@V?$allocator@D@2@@std@@@2@@std@@QBE_NXZ 00437e90 f i MainFile.obj
 0002:00021ff0       ?end@FileNode@cv@@QBE?AVFileNodeIterator@2@XZ 00437ff0 f i MainFile.obj
 0002:00022050       ?eof@?$char_traits@D@std@@SAHXZ 00438050 f i MainFile.obj
 0002:000220d0       ?eq_int_type@?$char_traits@D@std@@SA_NABH0@Z 004380d0 f i MainFile.obj
 0002:00022220       ?erase@?$basic_string@DU?$char_traits@D@std@@V?$allocator@D@2@@std@@QAEAAV12@II@Z 00438220 f i MainFile.obj
 0002:00022390       ?fabs@@YAMM@Z              00438390 f i MainFile.obj
 0002:000224b0       ?compare@?$basic_string@DU?$char_traits@D@std@@V?$allocator@D@2@@std@@QBEHIIPBDI@Z 004384b0 f i MainFile.obj
 0002:00022780       ?incRef@PtrOwner@detail@cv@@QAEXXZ 00438780 f i MainFile.obj
 0002:00022930       ?init@_InputArray@cv@@IAEXHPBXV?$Size_@H@2@@Z 00438930 f i MainFile.obj
 0002:000229f0       ?length@?$char_traits@D@std@@SAIPBD@Z 004389f0 f i MainFile.obj
 0002:00022a50       ?max_size@?$_Wrap_alloc@V?$allocator@D@std@@@std@@QBEIU_Nil@2@@Z 00438a50 f i MainFile.obj
 0002:00022ab0       ?max_size@?$_Wrap_alloc@V?$allocator@V?$Point3_@M@cv@@@std@@@std@@QBEIU_Nil@2@@Z 00438ab0 f i MainFile.obj
 0002:00022b10       ?max_size@?$_Wrap_alloc@V?$allocator@V?$Point_@M@cv@@@std@@@std@@QBEIU_Nil@2@@Z 00438b10 f i MainFile.obj
 0002:00022c30       ?max_size@?$allocator@D@std@@QBEIXZ 00438c30 f i MainFile.obj
 0002:00022c70       ?max_size@?$allocator@V?$Point3_@M@cv@@@std@@QBEIXZ 00438c70 f i MainFile.obj
 0002:00022cb0       ?max_size@?$allocator@V?$Point_@M@cv@@@std@@QBEIXZ 00438cb0 f i MainFile.obj
 0002:00022cf0       ?max_size@?$allocator@V?$basic_string@DU?$char_traits@D@std@@V?$allocator@D@2@@std@@@std@@QBEIXZ 00438cf0 f i MainFile.obj
 0002:00022d40       ?max_size@?$allocator@V?$vector@V?$Point3_@M@cv@@V?$allocator@V?$Point3_@M@cv@@@std@@@std@@@std@@QBEIXZ 00438d40 f i MainFile.obj
 0002:00022d90       ?max_size@?$allocator@V?$vector@V?$Point_@M@cv@@V?$allocator@V?$Point_@M@cv@@@std@@@std@@@std@@QBEIXZ 00438d90 f i MainFile.obj
 0002:00022de0       ?max_size@?$allocator_traits@V?$allocator@D@std@@@std@@SAIABV?$allocator@D@2@@Z 00438de0 f i MainFile.obj
 0002:00022e30       ?max_size@?$allocator_traits@V?$allocator@V?$Point3_@M@cv@@@std@@@std@@SAIABV?$allocator@V?$Point3_@M@cv@@@2@@Z 00438e30 f i MainFile.obj
 0002:00022e80       ?max_size@?$allocator_traits@V?$allocator@V?$Point_@M@cv@@@std@@@std@@SAIABV?$allocator@V?$Point_@M@cv@@@2@@Z 00438e80 f i MainFile.obj
 0002:00022ed0       ?max_size@?$allocator_traits@V?$allocator@V?$basic_string@DU?$char_traits@D@std@@V?$allocator@D@2@@std@@@std@@@std@@SAIABV?$allocator@V?$basic_string@DU?$char_traits@D@std@@V?$allocator@D@2@@std@@@2@@Z 00438ed0 f i MainFile.obj
 0002:00022fe0       ?max_size@?$allocator_traits@V?$allocator@V?$vector@V?$Point_@M@cv@@V?$allocator@V?$Point_@M@cv@@@std@@@std@@@std@@@std@@SAIABV?$allocator@V?$vector@V?$Point_@M@cv@@V?$allocator@V?$Point_@M@cv@@@std@@@std@@@2@@Z 00438fe0 f i MainFile.obj
 0002:000230c0       ?max_size@?$vector@V?$Point3_@M@cv@@V?$allocator@V?$Point3_@M@cv@@@std@@@std@@QBEIXZ 004390c0 f i MainFile.obj
 0002:00023130       ?max_size@?$vector@V?$Point_@M@cv@@V?$allocator@V?$Point_@M@cv@@@std@@@std@@QBEIXZ 00439130 f i MainFile.obj
 0002:000231a0       ?max_size@?$vector@V?$basic_string@DU?$char_traits@D@std@@V?$allocator@D@2@@std@@V?$allocator@V?$basic_string@DU?$char_traits@D@std@@V?$allocator@D@2@@std@@@2@@std@@QBEIXZ 004391a0 f i MainFile.obj
 0002:00023230       ?max_size@?$vector@V?$vector@V?$Point3_@M@cv@@V?$allocator@V?$Point3_@M@cv@@@std@@@std@@V?$allocator@V?$vector@V?$Point3_@M@cv@@V?$allocator@V?$Point3_@M@cv@@@std@@@std@@@2@@std@@QBEIXZ 00439230 f i MainFile.obj
 0002:00023330       ?move@?$char_traits@D@std@@SAPADPADPBDI@Z 00439330 f i MainFile.obj
 0002:000234c0       ?onBarChange@@YAXH@Z       004394c0 f   MainFile.obj
 0002:000235d0       ?on_BarChange_user_selection@@YAXH@Z 004395d0 f   MainFile.obj
 0002:00023650       ?push_back@?$vector@V?$basic_string@DU?$char_traits@D@std@@V?$allocator@D@2@@std@@V?$allocator@V?$basic_string@DU?$char_traits@D@std@@V?$allocator@D@2@@std@@@2@@std@@QAEXABV?$basic_string@DU?$char_traits@D@std@@V?$allocator@D@2@@2@@Z 00439650 f i MainFile.obj
 0002:000239d0       ?process_frame@@YAXPAVMat@cv@@0@Z 004399d0 f   MainFile.obj
 0002:00023be0       ?push_back@?$vector@V?$Point3_@M@cv@@V?$allocator@V?$Point3_@M@cv@@@std@@@std@@QAEX$$QAV?$Point3_@M@cv@@@Z 00439be0 f i MainFile.obj
 0002:00023dd0       ?push_back@?$vector@V?$Point_@M@cv@@V?$allocator@V?$Point_@M@cv@@@std@@@std@@QAEXABV?$Point_@M@cv@@@Z 00439dd0 f i MainFile.obj
 0002:000242e0       ?release@?$Ptr@UCvCapture@@@cv@@QAEXXZ 0043a2e0 f i MainFile.obj
 0002:00024470       ?release@?$Ptr@VIVideoCapture@cv@@@cv@@QAEXXZ 0043a470 f i MainFile.obj
 0002:00024600       ?release@Mat@cv@@QAEXXZ    0043a600 f i MainFile.obj
 0002:00024790       ?resize@?$vector@V?$basic_string@DU?$char_traits@D@std@@V?$allocator@D@2@@std@@V?$allocator@V?$basic_string@DU?$char_traits@D@std@@V?$allocator@D@2@@std@@@2@@std@@QAEXI@Z 0043a790 f i MainFile.obj
 0002:000248d0       ?gui_example@@YAXXZ        0043a8d0 f   MainFile.obj
 0002:00024b20       ?rgb_frame_reduce_Blue@@YAXPAVMat@cv@@0@Z 0043ab20 f   MainFile.obj
 0002:00024e50       ?rgb_frame_to_Edges@@YAXPAVMat@cv@@0@Z 0043ae50 f   MainFile.obj
 0002:000253d0       ?size@?$basic_string@DU?$char_traits@D@std@@V?$allocator@D@2@@std@@QBEIXZ 0043b3d0 f i MainFile.obj
 0002:00025440       ?size@?$vector@V?$Point3_@M@cv@@V?$allocator@V?$Point3_@M@cv@@@std@@@std@@QBEIXZ 0043b440 f i MainFile.obj
 0002:000254b0       ?size@?$vector@V?$Point_@M@cv@@V?$allocator@V?$Point_@M@cv@@@std@@@std@@QBEIXZ 0043b4b0 f i MainFile.obj
 0002:00025520       ?size@?$vector@V?$Vec@M$02@cv@@V?$allocator@V?$Vec@M$02@cv@@@std@@@std@@QBEIXZ 0043b520 f i MainFile.obj
 0002:00025590       ?size@?$vector@V?$basic_string@DU?$char_traits@D@std@@V?$allocator@D@2@@std@@V?$allocator@V?$basic_string@DU?$char_traits@D@std@@V?$allocator@D@2@@std@@@2@@std@@QBEIXZ 0043b590 f i MainFile.obj
 0002:00025610       ?size@?$vector@V?$vector@V?$Point3_@M@cv@@V?$allocator@V?$Point3_@M@cv@@@std@@@std@@V?$allocator@V?$vector@V?$Point3_@M@cv@@V?$allocator@V?$Point3_@M@cv@@@std@@@std@@@2@@std@@QBEIXZ 0043b610 f i MainFile.obj
 0002:00025690       ?size@?$vector@V?$vector@V?$Point_@M@cv@@V?$allocator@V?$Point_@M@cv@@@std@@@std@@V?$allocator@V?$vector@V?$Point_@M@cv@@V?$allocator@V?$Point_@M@cv@@@std@@@std@@@2@@std@@QBEIXZ 0043b690 f i MainFile.obj
 0002:000257a0       ?swap@?$Ptr@VIVideoCapture@cv@@@cv@@QAEXAAU12@@Z 0043b7a0 f i MainFile.obj
 0002:00025860       ?type@Mat@cv@@QBEHXZ       0043b860 f i MainFile.obj
 0002:00025950       ___local_stdio_scanf_options 0043b950 f i MainFile.obj
 0002:000259b0       __vsscanf_l                0043b9b0 f i MainFile.obj
 0002:00025a20       _main                      0043ba20 f   MainFile.obj
 0002:00026128       ?findChessboardCorners@cv@@YA_NABV_InputArray@1@V?$Size_@H@1@ABV_OutputArray@1@H@Z 0043c128 f   opencv_calib3d300d:opencv_calib3d300d.dll
 0002:0002612e       ?drawChessboardCorners@cv@@YAXABV_InputOutputArray@1@V?$Size_@H@1@ABV_InputArray@1@_N@Z 0043c12e f   opencv_calib3d300d:opencv_calib3d300d.dll
 0002:00026134       ?stereoCalibrate@cv@@YANABV_InputArray@1@00ABV_InputOutputArray@1@111V?$Size_@H@1@ABV_OutputArray@1@333HVTermCriteria@1@@Z 0043c134 f   opencv_calib3d300d:opencv_calib3d300d.dll
 0002:0002613a       ?stereoRectify@cv@@YAXABV_InputArray@1@000V?$Size_@H@1@00ABV_OutputArray@1@2222HN1PAV?$Rect_@H@1@3@Z 0043c13a f   opencv_calib3d300d:opencv_calib3d300d.dll
 0002:00026140       ?stereoRectifyUncalibrated@cv@@YA_NABV_InputArray@1@00V?$Size_@H@1@ABV_OutputArray@1@2N@Z 0043c140 f   opencv_calib3d300d:opencv_calib3d300d.dll
 0002:00026146       ?findFundamentalMat@cv@@YA?AVMat@1@ABV_InputArray@1@0HNNABV_OutputArray@1@@Z 0043c146 f   opencv_calib3d300d:opencv_calib3d300d.dll
 0002:0002614c       ?computeCorrespondEpilines@cv@@YAXABV_InputArray@1@H0ABV_OutputArray@1@@Z 0043c14c f   opencv_calib3d300d:opencv_calib3d300d.dll
 0002:00026152       ?fastFree@cv@@YAXPAX@Z     0043c152 f   opencv_core300d:opencv_core300d.dll
 0002:00026158       ?allocate@String@cv@@AAEPADI@Z 0043c158 f   opencv_core300d:opencv_core300d.dll
 0002:0002615e       ?deallocate@String@cv@@AAEXXZ 0043c15e f   opencv_core300d:opencv_core300d.dll
 0002:00026164       ?error@cv@@YAXHABVString@1@PBD1H@Z 0043c164 f   opencv_core300d:opencv_core300d.dll
 0002:0002616a       ?noArray@cv@@YAABV_InputOutputArray@1@XZ 0043c16a f   opencv_core300d:opencv_core300d.dll
 0002:00026170       ??0Mat@cv@@QAE@ABV01@ABV?$Rect_@H@1@@Z 0043c170 f   opencv_core300d:opencv_core300d.dll
 0002:00026176       ?copyTo@Mat@cv@@QBEXABV_OutputArray@2@@Z 0043c176 f   opencv_core300d:opencv_core300d.dll
 0002:0002617c       ?convertTo@Mat@cv@@QBEXABV_OutputArray@2@HNN@Z 0043c17c f   opencv_core300d:opencv_core300d.dll
 0002:00026182       ?inv@Mat@cv@@QBE?AVMatExpr@2@H@Z 0043c182 f   opencv_core300d:opencv_core300d.dll
 0002:00026188       ?eye@Mat@cv@@SA?AVMatExpr@2@HHH@Z 0043c188 f   opencv_core300d:opencv_core300d.dll
 0002:0002618e       ?create@Mat@cv@@QAEXHPBHH@Z 0043c18e f   opencv_core300d:opencv_core300d.dll
 0002:00026194       ?deallocate@Mat@cv@@QAEXXZ 0043c194 f   opencv_core300d:opencv_core300d.dll
 0002:0002619a       ?copySize@Mat@cv@@QAEXABV12@@Z 0043c19a f   opencv_core300d:opencv_core300d.dll
 0002:000261a0       ??Dcv@@YA?AVMatExpr@0@ABV10@ABVMat@0@@Z 0043c1a0 f   opencv_core300d:opencv_core300d.dll
 0002:000261a6       ??0FileStorage@cv@@QAE@ABVString@1@H0@Z 0043c1a6 f   opencv_core300d:opencv_core300d.dll
 0002:000261ac       ??1FileStorage@cv@@UAE@XZ  0043c1ac f   opencv_core300d:opencv_core300d.dll
 0002:000261b2       ?open@FileStorage@cv@@UAE_NABVString@2@H0@Z 0043c1b2 f   opencv_core300d:opencv_core300d.dll
 0002:000261b8       ?isOpened@FileStorage@cv@@UBE_NXZ 0043c1b8 f   opencv_core300d:opencv_core300d.dll
 0002:000261be       ?release@FileStorage@cv@@UAEXXZ 0043c1be f   opencv_core300d:opencv_core300d.dll
 0002:000261c4       ?root@FileStorage@cv@@QBE?AVFileNode@2@H@Z 0043c1c4 f   opencv_core300d:opencv_core300d.dll
 0002:000261ca       ?type@FileNode@cv@@QBEHXZ  0043c1ca f   opencv_core300d:opencv_core300d.dll
 0002:000261d0       ?size@FileNode@cv@@QBEIXZ  0043c1d0 f   opencv_core300d:opencv_core300d.dll
 0002:000261d6       ??0FileNodeIterator@cv@@QAE@PBUCvFileStorage@@PBUCvFileNode@@I@Z 0043c1d6 f   opencv_core300d:opencv_core300d.dll
 0002:000261dc       ??EFileNodeIterator@cv@@QAEAAV01@XZ 0043c1dc f   opencv_core300d:opencv_core300d.dll
 0002:000261e2       ?write@cv@@YAXAAVFileStorage@1@ABVString@1@ABVMat@1@@Z 0043c1e2 f   opencv_core300d:opencv_core300d.dll
 0002:000261e8       ?read@cv@@YAXABVFileNode@1@AAVString@1@ABV31@@Z 0043c1e8 f   opencv_core300d:opencv_core300d.dll
 0002:000261ee       ??6cv@@YAAAVFileStorage@0@AAV10@ABVString@0@@Z 0043c1ee f   opencv_core300d:opencv_core300d.dll
 0002:000261f4       ?bitwise_and@cv@@YAXABV_InputArray@1@0ABV_OutputArray@1@0@Z 0043c1f4 f   opencv_core300d:opencv_core300d.dll
 0002:000261fa       ?inRange@cv@@YAXABV_InputArray@1@00ABV_OutputArray@1@@Z 0043c1fa f   opencv_core300d:opencv_core300d.dll
 0002:00026200       ?namedWindow@cv@@YAXABVString@1@H@Z 0043c200 f   opencv_highgui300d:opencv_highgui300d.dll
 0002:00026206       ?waitKey@cv@@YAHH@Z        0043c206 f   opencv_highgui300d:opencv_highgui300d.dll
 0002:0002620c       ?imshow@cv@@YAXABVString@1@ABV_InputArray@1@@Z 0043c20c f   opencv_highgui300d:opencv_highgui300d.dll
 0002:00026212       ?setMouseCallback@cv@@YAXABVString@1@P6AXHHHHPAX@Z1@Z 0043c212 f   opencv_highgui300d:opencv_highgui300d.dll
 0002:00026218       ?setTrackbarPos@cv@@YAXABVString@1@0H@Z 0043c218 f   opencv_highgui300d:opencv_highgui300d.dll
 0002:0002621e       ?createButton@cv@@YAHABVString@1@P6AXHPAX@Z1H_N@Z 0043c21e f   opencv_highgui300d:opencv_highgui300d.dll
 0002:00026224       _cvCreateTrackbar          0043c224 f   opencv_highgui300d:opencv_highgui300d.dll
 0002:0002622a       ?imread@cv@@YA?AVMat@1@ABVString@1@H@Z 0043c22a f   opencv_imgcodecs300d:opencv_imgcodecs300d.dll
 0002:00026230       ?GaussianBlur@cv@@YAXABV_InputArray@1@ABV_OutputArray@1@V?$Size_@H@1@NNH@Z 0043c230 f   opencv_imgproc300d:opencv_imgproc300d.dll
 0002:00026236       ?Canny@cv@@YAXABV_InputArray@1@ABV_OutputArray@1@NNH_N@Z 0043c236 f   opencv_imgproc300d:opencv_imgproc300d.dll
 0002:0002623c       ?cornerSubPix@cv@@YAXABV_InputArray@1@ABV_InputOutputArray@1@V?$Size_@H@1@2VTermCriteria@1@@Z 0043c23c f   opencv_imgproc300d:opencv_imgproc300d.dll
 0002:00026242       ?resize@cv@@YAXABV_InputArray@1@ABV_OutputArray@1@V?$Size_@H@1@NNH@Z 0043c242 f   opencv_imgproc300d:opencv_imgproc300d.dll
 0002:00026248       ?remap@cv@@YAXABV_InputArray@1@ABV_OutputArray@1@00HHABV?$Scalar_@N@1@@Z 0043c248 f   opencv_imgproc300d:opencv_imgproc300d.dll
 0002:0002624e       ?initUndistortRectifyMap@cv@@YAXABV_InputArray@1@000V?$Size_@H@1@HABV_OutputArray@1@2@Z 0043c24e f   opencv_imgproc300d:opencv_imgproc300d.dll
 0002:00026254       ?undistortPoints@cv@@YAXABV_InputArray@1@ABV_OutputArray@1@0000@Z 0043c254 f   opencv_imgproc300d:opencv_imgproc300d.dll
 0002:0002625a       ?cvtColor@cv@@YAXABV_InputArray@1@ABV_OutputArray@1@HH@Z 0043c25a f   opencv_imgproc300d:opencv_imgproc300d.dll
 0002:00026260       ?moments@cv@@YA?AVMoments@1@ABV_InputArray@1@_N@Z 0043c260 f   opencv_imgproc300d:opencv_imgproc300d.dll
 0002:00026266       ?line@cv@@YAXABV_InputOutputArray@1@V?$Point_@H@1@1ABV?$Scalar_@N@1@HHH@Z 0043c266 f   opencv_imgproc300d:opencv_imgproc300d.dll
 0002:0002626c       ?rectangle@cv@@YAXAAVMat@1@V?$Rect_@H@1@ABV?$Scalar_@N@1@HHH@Z 0043c26c f   opencv_imgproc300d:opencv_imgproc300d.dll
 0002:00026272       ??0VideoCapture@cv@@QAE@XZ 0043c272 f   opencv_videoio300d:opencv_videoio300d.dll
 0002:00026278       ??0VideoCapture@cv@@QAE@ABVString@1@@Z 0043c278 f   opencv_videoio300d:opencv_videoio300d.dll
 0002:0002627e       ??0VideoCapture@cv@@QAE@H@Z 0043c27e f   opencv_videoio300d:opencv_videoio300d.dll
 0002:00026284       ??1VideoCapture@cv@@UAE@XZ 0043c284 f   opencv_videoio300d:opencv_videoio300d.dll
 0002:0002628a       ?isOpened@VideoCapture@cv@@UBE_NXZ 0043c28a f   opencv_videoio300d:opencv_videoio300d.dll
 0002:00026290       ?set@VideoCapture@cv@@UAE_NHN@Z 0043c290 f   opencv_videoio300d:opencv_videoio300d.dll
 0002:00026296       ?get@VideoCapture@cv@@UBENH@Z 0043c296 f   opencv_videoio300d:opencv_videoio300d.dll
 0002:0002629c       ??0VideoWriter@cv@@QAE@XZ  0043c29c f   opencv_videoio300d:opencv_videoio300d.dll
 0002:000262a2       ??1VideoWriter@cv@@UAE@XZ  0043c2a2 f   opencv_videoio300d:opencv_videoio300d.dll
 0002:000262a8       ?open@VideoWriter@cv@@UAE_NABVString@2@HNV?$Size_@H@2@_N@Z 0043c2a8 f   opencv_videoio300d:opencv_videoio300d.dll
 0002:000262ae       ??0_Lockit@std@@QAE@H@Z    0043c2ae f   msvcprtd:MSVCP140D.dll
 0002:000262b4       ??1_Lockit@std@@QAE@XZ     0043c2b4 f   msvcprtd:MSVCP140D.dll
 0002:000262ba       ?uncaught_exception@std@@YA_NXZ 0043c2ba f   msvcprtd:MSVCP140D.dll
 0002:000262c0       ?_Debug_message@std@@YAXPB_W0I@Z 0043c2c0 f   msvcprtd:MSVCP140D.dll
 0002:000262c6       ?_Xbad_alloc@std@@YAXXZ    0043c2c6 f   msvcprtd:MSVCP140D.dll
 0002:000262cc       ?_Xlength_error@std@@YAXPBD@Z 0043c2cc f   msvcprtd:MSVCP140D.dll
 0002:000262d2       ?_Xout_of_range@std@@YAXPBD@Z 0043c2d2 f   msvcprtd:MSVCP140D.dll
 0002:000262d8       ?good@ios_base@std@@QBE_NXZ 0043c2d8 f   msvcprtd:MSVCP140D.dll
 0002:000262de       ?flags@ios_base@std@@QBEHXZ 0043c2de f   msvcprtd:MSVCP140D.dll
 0002:000262e4       ?width@ios_base@std@@QBE_JXZ 0043c2e4 f   msvcprtd:MSVCP140D.dll
 0002:000262ea       ?width@ios_base@std@@QAE_J_J@Z 0043c2ea f   msvcprtd:MSVCP140D.dll
 0002:000262f0       ?sputc@?$basic_streambuf@DU?$char_traits@D@std@@@std@@QAEHD@Z 0043c2f0 f   msvcprtd:MSVCP140D.dll
 0002:000262f6       ?sputn@?$basic_streambuf@DU?$char_traits@D@std@@@std@@QAE_JPBD_J@Z 0043c2f6 f   msvcprtd:MSVCP140D.dll
 0002:000262fc       ?setstate@?$basic_ios@DU?$char_traits@D@std@@@std@@QAEXH_N@Z 0043c2fc f   msvcprtd:MSVCP140D.dll
 0002:00026302       ?tie@?$basic_ios@DU?$char_traits@D@std@@@std@@QBEPAV?$basic_ostream@DU?$char_traits@D@std@@@2@XZ 0043c302 f   msvcprtd:MSVCP140D.dll
 0002:00026308       ?rdbuf@?$basic_ios@DU?$char_traits@D@std@@@std@@QBEPAV?$basic_streambuf@DU?$char_traits@D@std@@@2@XZ 0043c308 f   msvcprtd:MSVCP140D.dll
 0002:0002630e       ?fill@?$basic_ios@DU?$char_traits@D@std@@@std@@QBEDXZ 0043c30e f   msvcprtd:MSVCP140D.dll
 0002:00026314       ?widen@?$basic_ios@DU?$char_traits@D@std@@@std@@QBEDD@Z 0043c314 f   msvcprtd:MSVCP140D.dll
 0002:0002631a       ?_Osfx@?$basic_ostream@DU?$char_traits@D@std@@@std@@QAEXXZ 0043c31a f   msvcprtd:MSVCP140D.dll
 0002:00026320       ??6?$basic_ostream@DU?$char_traits@D@std@@@std@@QAEAAV01@P6AAAV01@AAV01@@Z@Z 0043c320 f   msvcprtd:MSVCP140D.dll
 0002:00026326       ??6?$basic_ostream@DU?$char_traits@D@std@@@std@@QAEAAV01@H@Z 0043c326 f   msvcprtd:MSVCP140D.dll
 0002:0002632c       ??6?$basic_ostream@DU?$char_traits@D@std@@@std@@QAEAAV01@N@Z 0043c32c f   msvcprtd:MSVCP140D.dll
 0002:00026332       ?put@?$basic_ostream@DU?$char_traits@D@std@@@std@@QAEAAV12@D@Z 0043c332 f   msvcprtd:MSVCP140D.dll
 0002:00026338       ?flush@?$basic_ostream@DU?$char_traits@D@std@@@std@@QAEAAV12@XZ 0043c338 f   msvcprtd:MSVCP140D.dll
 0002:00026340       ??_L@YGXPAXIHP6EX0@Z1@Z    0043c340 f   MSVCRTD:ehvecctr.obj
 0002:00026370       ??_L@YGXPAXIIP6EX0@Z1@Z    0043c370 f   MSVCRTD:ehvecctr.obj
 0002:00026460       ??_M@YGXPAXIHP6EX0@Z@Z     0043c460 f   MSVCRTD:ehvecdtr.obj
 0002:00026490       ??_M@YGXPAXIIP6EX0@Z@Z     0043c490 f   MSVCRTD:ehvecdtr.obj
 0002:000265c0       ?__ArrayUnwind@@YGXPAXIIP6EX0@Z@Z 0043c5c0 f   MSVCRTD:ehvecdtr.obj
 0002:00026690       ??2@YAPAXI@Z               0043c690 f   MSVCRTD:new_scalar.obj
 0002:000266f0       ??3@YAXPAX@Z               0043c6f0 f   MSVCRTD:delete_scalar.obj
 0002:00026710       ??3@YAXPAXI@Z              0043c710 f   MSVCRTD:delete_scalar_size.obj
 0002:00026730       ??$__crt_fast_decode_pointer@PAP6AXXZ@@YAPAP6AXXZQAP6AXXZ@Z 0043c730 f i MSVCRTD:utility.obj
 0002:00026760       ??$__crt_fast_encode_pointer@PAP6AXXZ@@YAPAP6AXXZQAP6AXXZ@Z 0043c760 f i MSVCRTD:utility.obj
 0002:000267a0       ?__crt_rotate_pointer_value@@YAIIH@Z 0043c7a0 f i MSVCRTD:utility.obj
 0002:000268f0       _NtCurrentTeb              0043c8f0 f i MSVCRTD:utility.obj
 0002:00026900       ___scrt_acquire_startup_lock 0043c900 f   MSVCRTD:utility.obj
 0002:00026960       ___scrt_dllmain_after_initialize_c 0043c960 f   MSVCRTD:utility.obj
 0002:00026990       ___scrt_dllmain_before_initialize_c 0043c990 f   MSVCRTD:utility.obj
 0002:000269c0       ___scrt_dllmain_crt_thread_attach 0043c9c0 f   MSVCRTD:utility.obj
 0002:00026a00       ___scrt_dllmain_crt_thread_detach 0043ca00 f   MSVCRTD:utility.obj
 0002:00026a20       ___scrt_dllmain_exception_filter 0043ca20 f   MSVCRTD:utility.obj
 0002:00026a80       ___scrt_dllmain_uninitialize_c 0043ca80 f   MSVCRTD:utility.obj
 0002:00026ac0       ___scrt_dllmain_uninitialize_critical 0043cac0 f   MSVCRTD:utility.obj
 0002:00026ae0       ___scrt_initialize_crt     0043cae0 f   MSVCRTD:utility.obj
 0002:00026b40       ___scrt_initialize_onexit_tables 0043cb40 f   MSVCRTD:utility.obj
 0002:00026c40       ___scrt_is_nonwritable_in_current_image 0043cc40 f   MSVCRTD:utility.obj
 0002:00026dc0       ___scrt_release_startup_lock 0043cdc0 f   MSVCRTD:utility.obj
 0002:00026df0       ___scrt_uninitialize_crt   0043cdf0 f   MSVCRTD:utility.obj
 0002:00026e40       __onexit                   0043ce40 f   MSVCRTD:utility.obj
 0002:00026ed0       _at_quick_exit             0043ced0 f   MSVCRTD:utility.obj
 0002:00026f30       _atexit                    0043cf30 f   MSVCRTD:utility.obj
 0002:00026f70       @_RTC_AllocaHelper@12      0043cf70 f   MSVCRTD:_stack_.obj
 0002:00026fb0       @_RTC_CheckStackVars2@12   0043cfb0 f   MSVCRTD:_stack_.obj
 0002:000270c0       @_RTC_CheckStackVars@8     0043d0c0 f   MSVCRTD:_stack_.obj
 0002:00027130       __RTC_CheckEsp             0043d130 f   MSVCRTD:_stack_.obj
 0002:00027160       @__security_check_cookie@4 0043d160 f   MSVCRTD:_secchk_.obj
 0002:00027180       __CRT_RTC_INIT             0043d180 f   MSVCRTD:_init_.obj
 0002:00027190       __CRT_RTC_INITW            0043d190 f   MSVCRTD:_init_.obj
 0002:000271a0       __RTC_InitBase             0043d1a0 f   MSVCRTD:_init_.obj
 0002:000271e0       __RTC_Shutdown             0043d1e0 f   MSVCRTD:_init_.obj
 0002:00027200       __chkstk                   0043d200 f   MSVCRTD:chkstk.obj
 0002:00027200       __alloca_probe             0043d200 f   MSVCRTD:chkstk.obj
 0002:00027240       __ftol2_sse                0043d240 f   MSVCRTD:_ftol2_.obj
 0002:00027249       __ftol2_pentium4           0043d249 f   MSVCRTD:_ftol2_.obj
 0002:0002725c       __ftol2_sse_excpt          0043d25c f   MSVCRTD:_ftol2_.obj
 0002:00027280       __ftol2                    0043d280 f   MSVCRTD:_ftol2_.obj
 0002:00027710       ?configure_argv@__scrt_narrow_argv_policy@@SAHXZ 0043d710 f i MSVCRTD:exe_main.obj
 0002:00027730       ?get_app_type@__scrt_main_policy@@SA?AW4_crt_app_type@@XZ 0043d730 f i MSVCRTD:exe_main.obj
 0002:00027780       _mainCRTStartup            0043d780 f   MSVCRTD:exe_main.obj
 0002:00027790       @_guard_check_icall@4      0043d790 f i MSVCRTD:checkcfg.obj
 0002:000277b0       __except_handler4          0043d7b0 f   MSVCRTD:_chandler4gs_.obj
 0002:000277e0       ??0bad_alloc@std@@AAE@QBD@Z 0043d7e0 f i MSVCRTD:throw_bad_alloc.obj
 0002:00027810       ??0bad_alloc@std@@QAE@ABV01@@Z 0043d810 f i MSVCRTD:throw_bad_alloc.obj
 0002:00027840       ??0bad_alloc@std@@QAE@XZ   0043d840 f i MSVCRTD:throw_bad_alloc.obj
 0002:00027870       ??0bad_array_new_length@std@@QAE@ABV01@@Z 0043d870 f i MSVCRTD:throw_bad_alloc.obj
 0002:000278a0       ??0bad_array_new_length@std@@QAE@XZ 0043d8a0 f i MSVCRTD:throw_bad_alloc.obj
 0002:000278d0       ??0exception@std@@QAE@ABV01@@Z 0043d8d0 f i MSVCRTD:throw_bad_alloc.obj
 0002:00027920       ??0exception@std@@QAE@QBDH@Z 0043d920 f i MSVCRTD:throw_bad_alloc.obj
 0002:00027960       ??1bad_alloc@std@@UAE@XZ   0043d960 f i MSVCRTD:throw_bad_alloc.obj
 0002:00027980       ??1bad_array_new_length@std@@UAE@XZ 0043d980 f i MSVCRTD:throw_bad_alloc.obj
 0002:000279a0       ??1exception@std@@UAE@XZ   0043d9a0 f i MSVCRTD:throw_bad_alloc.obj
 0002:000279d0       ??_Ebad_alloc@std@@UAEPAXI@Z 0043d9d0 f i MSVCRTD:throw_bad_alloc.obj
 0002:000279d0       ??_Gbad_alloc@std@@UAEPAXI@Z 0043d9d0 f i MSVCRTD:throw_bad_alloc.obj
 0002:00027a10       ??_Gbad_array_new_length@std@@UAEPAXI@Z 0043da10 f i MSVCRTD:throw_bad_alloc.obj
 0002:00027a10       ??_Ebad_array_new_length@std@@UAEPAXI@Z 0043da10 f i MSVCRTD:throw_bad_alloc.obj
 0002:00027a50       ??_Eexception@std@@UAEPAXI@Z 0043da50 f i MSVCRTD:throw_bad_alloc.obj
 0002:00027a50       ??_Gexception@std@@UAEPAXI@Z 0043da50 f i MSVCRTD:throw_bad_alloc.obj
 0002:00027a90       ?__scrt_throw_std_bad_alloc@@YAXXZ 0043da90 f   MSVCRTD:throw_bad_alloc.obj
 0002:00027ac0       ?__scrt_throw_std_bad_array_new_length@@YAXXZ 0043dac0 f   MSVCRTD:throw_bad_alloc.obj
 0002:00027af0       ?what@exception@std@@UBEPBDXZ 0043daf0 f i MSVCRTD:throw_bad_alloc.obj
 0002:00027b30       ___isa_available_init      0043db30 f   MSVCRTD:_cpu_disp_.obj
 0002:00027ec0       ___scrt_is_ucrt_dll_in_use 0043dec0 f   MSVCRTD:ucrt_detection.obj
 0002:00027ef0       ___scrt_fastfail           0043def0 f   MSVCRTD:utility_desktop.obj
 0002:00028080       ___scrt_get_show_window_mode 0043e080 f   MSVCRTD:utility_desktop.obj
 0002:000280d0       ___scrt_initialize_winrt   0043e0d0 f   MSVCRTD:utility_desktop.obj
 0002:000280e0       ___scrt_is_managed_app     0043e0e0 f   MSVCRTD:utility_desktop.obj
 0002:00028190       ___scrt_set_unhandled_exception_filter 0043e190 f   MSVCRTD:utility_desktop.obj
 0002:000281b0       ___scrt_unhandled_exception_filter@4 0043e1b0 f   MSVCRTD:utility_desktop.obj
 0002:00028230       __crt_debugger_hook        0043e230 f   MSVCRTD:utility_desktop.obj
 0002:000283f0       ?_RTC_AllocaFailure@@YAXPAXPAU_RTC_ALLOCA_NODE@@H@Z 0043e3f0 f   MSVCRTD:_error_.obj
 0002:00028560       ?_RTC_Failure@@YAXPAXH@Z   0043e560 f   MSVCRTD:_error_.obj
 0002:000285d0       ?_RTC_StackFailure@@YAXPAXPBD@Z 0043e5d0 f   MSVCRTD:_error_.obj
 0002:00028a40       __RTC_UninitUse            0043ea40 f   MSVCRTD:_error_.obj
 0002:00028b70       ___local_stdio_printf_options 0043eb70 f i MSVCRTD:_error_.obj
 0002:00028b80       __vsprintf_s_l             0043eb80 f i MSVCRTD:_error_.obj
 0002:00028bc0       _sprintf_s                 0043ebc0 f i MSVCRTD:_error_.obj
 0002:00028bf0       ___raise_securityfailure   0043ebf0 f   MSVCRTD:gs_report.obj
 0002:00028c30       ___report_gsfailure        0043ec30 f   MSVCRTD:gs_report.obj
 0002:00028d80       ___report_rangecheckfailure 0043ed80 f   MSVCRTD:gs_report.obj
 0002:00028d90       ___report_securityfailure  0043ed90 f   MSVCRTD:gs_report.obj
 0002:00028ea0       ___report_securityfailureEx 0043eea0 f   MSVCRTD:gs_report.obj
 0002:00029010       ?_RTC_GetErrorFunc@@YAP6AHHPBDH00ZZPBX@Z 0043f010 f   MSVCRTD:_userapi_.obj
 0002:00029020       ?_RTC_GetErrorFuncW@@YAP6AHHPB_WH00ZZPBX@Z 0043f020 f   MSVCRTD:_userapi_.obj
 0002:00029030       __RTC_GetErrDesc           0043f030 f   MSVCRTD:_userapi_.obj
 0002:00029050       __RTC_NumErrors            0043f050 f   MSVCRTD:_userapi_.obj
 0002:00029060       __RTC_SetErrorFunc         0043f060 f   MSVCRTD:_userapi_.obj
 0002:00029090       __RTC_SetErrorFuncW        0043f090 f   MSVCRTD:_userapi_.obj
 0002:000290c0       __RTC_SetErrorType         0043f0c0 f   MSVCRTD:_userapi_.obj
 0002:000290f0       ___security_init_cookie    0043f0f0 f   MSVCRTD:gs_support.obj
 0002:00029210       __matherr                  0043f210 f   MSVCRTD:matherr.obj
 0002:00029220       __get_startup_argv_mode    0043f220 f   MSVCRTD:argv_mode.obj
 0002:00029230       __get_startup_commit_mode  0043f230 f   MSVCRTD:commit_mode.obj
 0002:00029240       __get_startup_file_mode    0043f240 f   MSVCRTD:file_mode.obj
 0002:00029250       __get_startup_new_mode     0043f250 f   MSVCRTD:new_mode.obj
 0002:00029260       __get_startup_thread_locale_mode 0043f260 f   MSVCRTD:thread_locale.obj
 0002:00029270       ?__scrt_initialize_type_info@@YAXXZ 0043f270 f   MSVCRTD:tncleanup.obj
 0002:00029290       ?__scrt_uninitialize_type_info@@YAXXZ 0043f290 f   MSVCRTD:tncleanup.obj
 0002:000292b0       __initialize_default_precision 0043f2b0 f   MSVCRTD:default_precision.obj
 0002:000292e0       __initialize_invalid_parameter_handler 0043f2e0 f   MSVCRTD:invalid_parameter_handler.obj
 0002:000292f0       __initialize_denormal_control 0043f2f0 f   MSVCRTD:denormal_control.obj
 0002:00029300       ___scrt_initialize_default_local_stdio_options 0043f300 f   MSVCRTD:default_local_stdio_options.obj
 0002:00029350       ___scrt_is_user_matherr_present 0043f350 f   MSVCRTD:matherr_detection.obj
 0002:00029380       ___scrt_get_dyn_tls_init_callback 0043f380 f   MSVCRTD:dyn_tls_init.obj
 0002:00029390       ___scrt_get_dyn_tls_dtor_callback 0043f390 f   MSVCRTD:dyn_tls_dtor.obj
 0002:000293a0       __RTC_Initialize           0043f3a0 f   MSVCRTD:_initsect_.obj
 0002:000293e0       __RTC_Terminate            0043f3e0 f   MSVCRTD:_initsect_.obj
 0002:00029420       @_guard_check_icall_nop@4  0043f420 f i MSVCRTD:guard_support.obj
 0002:00029430       __guard_icall_checks_enforced 0043f430 f i MSVCRTD:guard_support.obj
 0002:00029460       ??1type_info@@UAE@XZ       0043f460 f   MSVCRTD:std_type_info_static.obj
 0002:00029480       ??_Etype_info@@UAEPAXI@Z   0043f480 f i MSVCRTD:std_type_info_static.obj
 0002:00029480       ??_Gtype_info@@UAEPAXI@Z   0043f480 f i MSVCRTD:std_type_info_static.obj
 0002:00029a80       ?_RTC_GetSrcLine@@YAHPAEPA_WKPAH1K@Z 0043fa80 f   MSVCRTD:_pdblkup_.obj
 0002:00029ea6       _memcmp                    0043fea6 f   vcruntimed:VCRUNTIME140D.dll
 0002:00029eac       _memcpy                    0043feac f   vcruntimed:VCRUNTIME140D.dll
 0002:00029eb2       _memmove                   0043feb2 f   vcruntimed:VCRUNTIME140D.dll
 0002:00029eb8       __CxxThrowException@8      0043feb8 f   vcruntimed:VCRUNTIME140D.dll
 0002:00029ebe       ___CxxFrameHandler3        0043febe f   vcruntimed:VCRUNTIME140D.dll
 0002:00029ec4       _memset                    0043fec4 f   vcruntimed:VCRUNTIME140D.dll
 0002:00029eca       ___telemetry_main_invoke_trigger 0043feca f   vcruntimed:VCRUNTIME140D.dll
 0002:00029ed0       ___telemetry_main_return_trigger 0043fed0 f   vcruntimed:VCRUNTIME140D.dll
 0002:00029ed6       __except_handler4_common   0043fed6 f   vcruntimed:VCRUNTIME140D.dll
 0002:00029edc       ___std_exception_copy      0043fedc f   vcruntimed:VCRUNTIME140D.dll
 0002:00029ee2       ___std_exception_destroy   0043fee2 f   vcruntimed:VCRUNTIME140D.dll
 0002:00029ee8       ___std_type_info_destroy_list 0043fee8 f   vcruntimed:VCRUNTIME140D.dll
 0002:00029eee       ___vcrt_GetModuleFileNameW 0043feee f   vcruntimed:VCRUNTIME140D.dll
 0002:00029ef4       ___vcrt_GetModuleHandleW   0043fef4 f   vcruntimed:VCRUNTIME140D.dll
 0002:00029efa       ___vcrt_LoadLibraryExW     0043fefa f   vcruntimed:VCRUNTIME140D.dll
 0002:00029f00       __invalid_parameter        0043ff00 f   ucrtd:ucrtbased.dll
 0002:00029f06       _fabs                      0043ff06 f   ucrtd:ucrtbased.dll
 0002:00029f0c       _exit                      0043ff0c f   ucrtd:ucrtbased.dll
 0002:00029f12       _putchar                   0043ff12 f   ucrtd:ucrtbased.dll
 0002:00029f18       ___stdio_common_vsscanf    0043ff18 f   ucrtd:ucrtbased.dll
 0002:00029f1e       _strlen                    0043ff1e f   ucrtd:ucrtbased.dll
 0002:00029f24       __CrtDbgReportW            0043ff24 f   ucrtd:ucrtbased.dll
 0002:00029f2a       _terminate                 0043ff2a f   ucrtd:ucrtbased.dll
 0002:00029f30       __callnewh                 0043ff30 f   ucrtd:ucrtbased.dll
 0002:00029f36       _malloc                    0043ff36 f   ucrtd:ucrtbased.dll
 0002:00029f3c       __free_dbg                 0043ff3c f   ucrtd:ucrtbased.dll
 0002:00029f42       __seh_filter_dll           0043ff42 f   ucrtd:ucrtbased.dll
 0002:00029f48       __initialize_narrow_environment 0043ff48 f   ucrtd:ucrtbased.dll
 0002:00029f4e       __initialize_onexit_table  0043ff4e f   ucrtd:ucrtbased.dll
 0002:00029f54       __register_onexit_function 0043ff54 f   ucrtd:ucrtbased.dll
 0002:00029f5a       __execute_onexit_table     0043ff5a f   ucrtd:ucrtbased.dll
 0002:00029f60       __crt_atexit               0043ff60 f   ucrtd:ucrtbased.dll
 0002:00029f66       __crt_at_quick_exit        0043ff66 f   ucrtd:ucrtbased.dll
 0002:00029f6c       __cexit                    0043ff6c f   ucrtd:ucrtbased.dll
 0002:00029f72       __CrtDbgReport             0043ff72 f   ucrtd:ucrtbased.dll
 0002:00029f78       __seh_filter_exe           0043ff78 f   ucrtd:ucrtbased.dll
 0002:00029f7e       __set_app_type             0043ff7e f   ucrtd:ucrtbased.dll
 0002:00029f84       ___setusermatherr          0043ff84 f   ucrtd:ucrtbased.dll
 0002:00029f8a       __configure_narrow_argv    0043ff8a f   ucrtd:ucrtbased.dll
 0002:00029f90       __get_initial_narrow_environment 0043ff90 f   ucrtd:ucrtbased.dll
 0002:00029f96       __initterm                 0043ff96 f   ucrtd:ucrtbased.dll
 0002:00029f9c       __initterm_e               0043ff9c f   ucrtd:ucrtbased.dll
 0002:00029fa2       __exit                     0043ffa2 f   ucrtd:ucrtbased.dll
 0002:00029fa8       __set_fmode                0043ffa8 f   ucrtd:ucrtbased.dll
 0002:00029fae       ___p___argc                0043ffae f   ucrtd:ucrtbased.dll
 0002:00029fb4       ___p___argv                0043ffb4 f   ucrtd:ucrtbased.dll
 0002:00029fba       __c_exit                   0043ffba f   ucrtd:ucrtbased.dll
 0002:00029fc0       __register_thread_local_exe_atexit_callback 0043ffc0 f   ucrtd:ucrtbased.dll
 0002:00029fc6       __configthreadlocale       0043ffc6 f   ucrtd:ucrtbased.dll
 0002:00029fcc       __set_new_mode             0043ffcc f   ucrtd:ucrtbased.dll
 0002:00029fd2       ___p__commode              0043ffd2 f   ucrtd:ucrtbased.dll
 0002:00029fd8       ___stdio_common_vsprintf_s 0043ffd8 f   ucrtd:ucrtbased.dll
 0002:00029fde       __controlfp_s              0043ffde f   ucrtd:ucrtbased.dll
 0002:00029fe4       __wmakepath_s              0043ffe4 f   ucrtd:ucrtbased.dll
 0002:00029fea       __wsplitpath_s             0043ffea f   ucrtd:ucrtbased.dll
 0002:00029ff0       _wcscpy_s                  0043fff0 f   ucrtd:ucrtbased.dll
 0002:00029ff6       _IsProcessorFeaturePresent@4 0043fff6 f   kernel32:KERNEL32.dll
 0002:00029ffc       _IsDebuggerPresent@0       0043fffc f   kernel32:KERNEL32.dll
 0002:0002a002       _UnhandledExceptionFilter@4 00440002 f   kernel32:KERNEL32.dll
 0002:0002a008       _SetUnhandledExceptionFilter@4 00440008 f   kernel32:KERNEL32.dll
 0002:0002a00e       _GetStartupInfoW@4         0044000e f   kernel32:KERNEL32.dll
 0002:0002a014       _GetModuleHandleW@4        00440014 f   kernel32:KERNEL32.dll
 0002:0002a01a       _RaiseException@16         0044001a f   kernel32:KERNEL32.dll
 0002:0002a020       _MultiByteToWideChar@24    00440020 f   kernel32:KERNEL32.dll
 0002:0002a026       _WideCharToMultiByte@32    00440026 f   kernel32:KERNEL32.dll
 0002:0002a02c       _GetCurrentProcess@0       0044002c f   kernel32:KERNEL32.dll
 0002:0002a032       _TerminateProcess@8        00440032 f   kernel32:KERNEL32.dll
 0002:0002a038       _QueryPerformanceCounter@4 00440038 f   kernel32:KERNEL32.dll
 0002:0002a03e       _GetCurrentProcessId@0     0044003e f   kernel32:KERNEL32.dll
 0002:0002a044       _GetCurrentThreadId@0      00440044 f   kernel32:KERNEL32.dll
 0002:0002a04a       _GetSystemTimeAsFileTime@4 0044004a f   kernel32:KERNEL32.dll
 0002:0002a050       _InitializeSListHead@4     00440050 f   kernel32:KERNEL32.dll
 0002:0002a056       _GetLastError@0            00440056 f   kernel32:KERNEL32.dll
 0002:0002a05c       _HeapAlloc@12              0044005c f   kernel32:KERNEL32.dll
 0002:0002a062       _HeapFree@12               00440062 f   kernel32:KERNEL32.dll
 0002:0002a068       _GetProcessHeap@0          00440068 f   kernel32:KERNEL32.dll
 0002:0002a06e       _VirtualQuery@12           0044006e f   kernel32:KERNEL32.dll
 0002:0002a074       _FreeLibrary@4             00440074 f   kernel32:KERNEL32.dll
 0002:0002a07a       _GetProcAddress@8          0044007a f   kernel32:KERNEL32.dll
 0002:0002a080       ___vcrt_initialize         00440080 f   MSVCRTD:ucrt_stubs.obj
 0002:0002a080       ___acrt_initialize         00440080 f   MSVCRTD:ucrt_stubs.obj
 0002:0002a080       ___scrt_stub_for_acrt_initialize 00440080 f   MSVCRTD:ucrt_stubs.obj
 0002:0002a090       ___vcrt_thread_attach      00440090 f   MSVCRTD:ucrt_stubs.obj
 0002:0002a090       ___scrt_stub_for_acrt_thread_attach 00440090 f   MSVCRTD:ucrt_stubs.obj
 0002:0002a090       ___acrt_thread_attach      00440090 f   MSVCRTD:ucrt_stubs.obj
 0002:0002a0a0       ___acrt_thread_detach      004400a0 f   MSVCRTD:ucrt_stubs.obj
 0002:0002a0a0       ___scrt_stub_for_acrt_thread_detach 004400a0 f   MSVCRTD:ucrt_stubs.obj
 0002:0002a0a0       ___vcrt_thread_detach      004400a0 f   MSVCRTD:ucrt_stubs.obj
 0002:0002a0b0       ___scrt_stub_for_acrt_uninitialize 004400b0 f   MSVCRTD:ucrt_stubs.obj
 0002:0002a0b0       ___vcrt_uninitialize       004400b0 f   MSVCRTD:ucrt_stubs.obj
 0002:0002a0b0       ___acrt_uninitialize       004400b0 f   MSVCRTD:ucrt_stubs.obj
 0002:0002a0c0       ___vcrt_uninitialize_critical 004400c0 f   MSVCRTD:ucrt_stubs.obj
 0002:0002a0c0       ___acrt_uninitialize_critical 004400c0 f   MSVCRTD:ucrt_stubs.obj
 0002:0002a0c0       ___scrt_stub_for_acrt_uninitialize_critical 004400c0 f   MSVCRTD:ucrt_stubs.obj
 0002:0002a0d0       __is_c_termination_complete 004400d0 f   MSVCRTD:ucrt_stubs.obj
 0002:0002a0d0       ___scrt_stub_for_is_c_termination_complete 004400d0 f   MSVCRTD:ucrt_stubs.obj
 0002:0002a0e0       ?do_stereo_calib@@YAHHPAPAD@Z 004400e0 f   MainFile.obj
 0003:00000000       ___xc_a                    00446000     MSVCRTD:initializers.obj
 0003:00000314       ___xc_z                    00446314     MSVCRTD:initializers.obj
 0003:00000418       ___xi_a                    00446418     MSVCRTD:initializers.obj
 0003:00000724       ___xi_z                    00446724     MSVCRTD:initializers.obj
 0003:00000828       ___xp_a                    00446828     MSVCRTD:initializers.obj
 0003:0000092c       ___xp_z                    0044692c     MSVCRTD:initializers.obj
 0003:00000a30       ___xt_a                    00446a30     MSVCRTD:initializers.obj
 0003:00000b34       ___xt_z                    00446b34     MSVCRTD:initializers.obj
 0003:00000ea4       ??_C@_01LAKCGALK@9?$AA@    00446ea4     MainFile.obj
 0003:00000ea8       ??_C@_08BJJAFCGA@Controls?$AA@ 00446ea8     MainFile.obj
 0003:00000eb4       ??_C@_0O@HKAIHHOA@?$EAmy_button_cb?$AA@ 00446eb4     MainFile.obj
 0003:00000ec4       __real@00000000            00446ec4     MainFile.obj
 0003:00000ec8       __real@3f800000            00446ec8     MainFile.obj
 0003:00000ecc       ??_C@_01DHDKHMHF@6?$AA@    00446ecc     MainFile.obj
 0003:00000ed8       ??_C@_05HILMDGCJ@F1ndx?$AA@ 00446ed8     MainFile.obj
 0003:00000eec       ??_C@_0BC@LDIHBLCA@Thresholded?5Image?$AA@ 00446eec     MainFile.obj
 0003:00000f20       ??_C@_1JA@MHADJNIL@?$AAc?$AA?3?$AA?2?$AAp?$AAr?$AAo?$AAg?$AAr?$AAa?$AAm?$AA?5?$AAf?$AAi?$AAl?$AAe?$AAs?$AA?5?$AA?$CI?$AAx?$AA8?$AA6?$AA?$CJ?$AA?2?$AAm?$AAi?$AAc?$AAr?$AAo?$AAs?$AAo?$AAf?$AAt@ 00446f20     MainFile.obj
 0003:00000fb0       ??_C@_0BD@OLBABOEK@vector?$DMT?$DO?5too?5long?$AA@ 00446fb0     MainFile.obj
 0003:00000fcc       ??_C@_1DC@POOIKBAO@?$AAI?$AAT?$AAE?$AAR?$AAA?$AAT?$AAO?$AAR?$AA?5?$AAL?$AAI?$AAS?$AAT?$AA?5?$AAC?$AAO?$AAR?$AAR?$AAU?$AAP?$AAT?$AAE?$AAD?$AA?$CB?$AA?$AA@ 00446fcc     MainFile.obj
 0003:00001008       ?npos@?$basic_string@DU?$char_traits@D@std@@V?$allocator@D@2@@std@@2IB 00447008     MainFile.obj
 0003:0000100c       ??_C@_00CNPNBAHC@?$AA@     0044700c     MainFile.obj
 0003:00001010       ??_C@_02DPKJAMEF@?$CFd?$AA@ 00447010     MainFile.obj
 0003:00001014       ??_C@_0DB@KEBCPFCO@c?3?2opencv?2build?2include?2opencv2?2@ 00447014     MainFile.obj
 0003:00001050       ??_C@_0N@DDCCIDDE@cv?3?3Mat?3?3Mat?$AA@ 00447050     MainFile.obj
 0003:00001060       ??_C@_0BB@FDGCNLKM@_step?5?$DO?$DN?5minstep?$AA@ 00447060     MainFile.obj
 0003:00001074       ??_C@_0CA@LBFJDOIG@Step?5must?5be?5a?5multiple?5of?5esz1?$AA@ 00447074     MainFile.obj
 0003:0000109c       ??_C@_0BJ@HDGHAPHP@cv?3?3MatSize?3?3operator?5?$CI?$CJ?$AA@ 0044709c     MainFile.obj
 0003:000010bc       ??_C@_0L@OHHELNGD@p?$FL?91?$FN?5?$DM?$DN?52?$AA@ 004470bc     MainFile.obj
 0003:000010cc       ??_C@_0BC@BOBMKOEC@mystereocalib?4yml?$AA@ 004470cc     MainFile.obj
 0003:000010e8       ??_C@_0BGD@JLKKBICG@?5Given?5a?5list?5of?5chessboard?5imag@ 004470e8     MainFile.obj
 0003:0000124c       ??_C@_0N@PKELEFAE@dummy_button?$AA@ 0044724c     MainFile.obj
 0003:0000126c       ??_C@_0CI@LCNFBDCP@Mouse?5move?5over?5the?5window?5?9?5pos@ 0044726c     MainFile.obj
 0003:00001298       ??_C@_0HA@CGFKNKJN@Usage?3?6?5?4?1stereo_calib?5?9w?5board_@ 00447298     MainFile.obj
 0003:00001320       ??_C@_0EC@POKDPNC@Error?3?5the?5image?5list?5contains?5o@ 00447320     MainFile.obj
 0003:00001370       ??_C@_0EG@GACGFFCF@?5has?5the?5size?5different?5from?5the@ 00447370     MainFile.obj
 0003:000013c4       ??_C@_0L@CNCKLBA@The?5image?5?$AA@ 004473c4     MainFile.obj
 0003:000013d4       ??_C@_07IGDAEPBO@corners?$AA@ 004473d4     MainFile.obj
 0003:000013e0       ??_C@_0CJ@HDJLAHEL@?5pairs?5have?5been?5successfully?5de@ 004473e0     MainFile.obj
 0003:00001414       ??_C@_0DA@MIKANOPE@Error?3?5too?5little?5pairs?5to?5run?5t@ 00447414     MainFile.obj
 0003:00001450       ??_C@_0CA@GCDMLMJB@Running?5stereo?5calibration?5?4?4?4?6?$AA@ 00447450     MainFile.obj
 0003:00001478       ??_C@_0BF@FMJDKOKK@done?5with?5RMS?5error?$DN?$AA@ 00447478     MainFile.obj
 0003:00001494       ??_C@_0BM@GOOKKHHI@average?5reprojection?5err?5?$DN?5?$AA@ 00447494     MainFile.obj
 0003:000014b8       ??_C@_0BH@HNIKBCLA@?4?4?1data?1intrinsics?4yml?$AA@ 004474b8     MainFile.obj
 0003:000014d4       ??_C@_02JKFNFHIA@D2?$AA@   004474d4     MainFile.obj
 0003:000014d8       ??_C@_02JFIMGMAP@M2?$AA@   004474d8     MainFile.obj
 0003:000014dc       ??_C@_02LBHAAEED@D1?$AA@   004474dc     MainFile.obj
 0003:000014e0       ??_C@_02LOKBDPMM@M1?$AA@   004474e0     MainFile.obj
 0003:000014e4       ??_C@_0CO@CNIMEJPD@Error?3?5can?5not?5save?5the?5intrinsi@ 004474e4     MainFile.obj
 0003:0000151c       ??_C@_0P@GMLFADI@extrinsics?4yml?$AA@ 0044751c     MainFile.obj
 0003:00001530       ??_C@_01BNIGIBBF@Q?$AA@    00447530     MainFile.obj
 0003:00001534       ??_C@_02IBHCFMCM@P2?$AA@   00447534     MainFile.obj
 0003:00001538       ??_C@_02KKFPAPOP@P1?$AA@   00447538     MainFile.obj
 0003:0000153c       ??_C@_02ICPGIIEC@R2?$AA@   0044753c     MainFile.obj
 0003:00001540       ??_C@_02KJNLNLIB@R1?$AA@   00447540     MainFile.obj
 0003:00001544       ??_C@_01GAPBHFFA@T?$AA@    00447544     MainFile.obj
 0003:00001548       ??_C@_01DGKLNCNG@R?$AA@    00447548     MainFile.obj
 0003:0000154c       ??_C@_0CO@HFLHOLNJ@Error?3?5can?5not?5save?5the?5extrinsi@ 0044754c     MainFile.obj
 0003:00001584       ??_C@_09IOFEJGDJ@rectified?$AA@ 00447584     MainFile.obj
 0003:00001590       ??_C@_02FAFFBMGP@?9w?$AA@  00447590     MainFile.obj
 0003:00001594       ??_C@_0BE@NDKAOMCO@invalid?5board?5width?$AA@ 00447594     MainFile.obj
 0003:000015ac       ??_C@_02JNAPBCPB@?9h?$AA@  004475ac     MainFile.obj
 0003:000015b0       ??_C@_0BF@MLDOABEN@invalid?5board?5height?$AA@ 004475b0     MainFile.obj
 0003:000015cc       ??_C@_03NDKDKKFO@?9nr?$AA@ 004475cc     MainFile.obj
 0003:000015d0       ??_C@_06LMIDBODK@?9?9help?$AA@ 004475d0     MainFile.obj
 0003:000015d8       ??_C@_0BA@JAHNCDNK@invalid?5option?5?$AA@ 004475d8     MainFile.obj
 0003:000015ec       ??_C@_0BJ@GNAIHACB@?4?4?1data?1stereo_calib?4xml?$AA@ 004475ec     MainFile.obj
 0003:00001610       ??_C@_0HD@EKKHBJCE@if?5you?5specified?5XML?5file?5with?5c@ 00447610     MainFile.obj
 0003:0000169c       ??_C@_0BN@PECCDGIJ@?5or?5the?5string?5list?5is?5empty?$AA@ 0044769c     MainFile.obj
 0003:000016c0       ??_C@_0O@DKHEFLGJ@can?5not?5open?5?$AA@ 004476c0     MainFile.obj
 0003:000016d0       ??_C@_0BI@BGIGCBDJ@user?5changed?5selection?5?$AA@ 004476d0     MainFile.obj
 0003:000016ec       ??_C@_0BP@LBEGKKJJ@user?5changed?5launching?5control?$AA@ 004476ec     MainFile.obj
 0003:00001714       ??_C@_0DC@JAKCNDKB@user?5selected?5to?5launch?5calibrat@ 00447714     MainFile.obj
 0003:00001750       ??_C@_0O@NDFGHJEJ@User?5Controls?$AA@ 00447750     MainFile.obj
 0003:00001760       ??_C@_0P@BKHOAKHL@User_selection?$AA@ 00447760     MainFile.obj
 0003:00001774       ??_C@_0BJ@NLILCCGN@change?5to?5launch?5program?$AA@ 00447774     MainFile.obj
 0003:00001794       ??_C@_0BC@DONPFFF@?4?4?1src?1imList?4xml?$AA@ 00447794     MainFile.obj
 0003:000017a8       ??_C@_1BO@MEPPHOO@?$AA?$CC?$AAo?$AAu?$AAt?$AA?5?$AAo?$AAf?$AA?5?$AAr?$AAa?$AAn?$AAg?$AAe?$AA?$CC?$AA?$AA@ 004477a8     MainFile.obj
 0003:000017c8       ??_C@_0CA@JDGAGNBM@?$EAmy_button_cb?5userdata?5is?5empty?$AA@ 004477c8     MainFile.obj
 0003:000017e8       ??_C@_04KOIFOBCH@LowH?$AA@ 004477e8     MainFile.obj
 0003:000017f0       ??_C@_05OBIBFDEO@HighH?$AA@ 004477f0     MainFile.obj
 0003:000017f8       ??_C@_04HLDCKLN@LowS?$AA@  004477f8     MainFile.obj
 0003:00001800       ??_C@_05EILHJINE@HighS?$AA@ 00447800     MainFile.obj
 0003:0000180c       ??_C@_04HKMENOPI@LowV?$AA@ 0044780c     MainFile.obj
 0003:00001834       ??_C@_07DFGIDBBA@Control?$AA@ 00447834     MainFile.obj
 0003:00001840       ??_C@_0BE@LMNLACIC@_Ptr_container?5?$CB?$DN?50?$AA@ 00447840     MainFile.obj
 0003:0000186c       ??_C@_0L@MAICENII@left01?4JPG?$AA@ 0044786c     MainFile.obj
 0003:0000188c       ??_C@_0N@MJHOKMFA@ImageDisplay?$AA@ 0044788c     MainFile.obj
 0003:0000189c       ??_C@_0CE@OFMIGAMM@Standard?5C?$CL?$CL?5Libraries?5Out?5of?5Ra@ 0044789c     MainFile.obj
 0003:000018c0       ??_C@_0BI@CFPLBAOH@invalid?5string?5position?$AA@ 004478c0     MainFile.obj
 0003:000018f8       ??_C@_01PKGAHCOL@?$CJ?$AA@ 004478f8     MainFile.obj
 0003:000018fc       ??_C@_0DC@MDMLODGB@Right?5button?5of?5the?5mouse?5is?5cli@ 004478fc     MainFile.obj
 0003:00001934       ??_C@_02KEGNLNML@?0?5?$AA@ 00447934     MainFile.obj
 0003:00001938       ??_C@_1DM@LHGCHCBA@?$AAv?$AAe?$AAc?$AAt?$AAo?$AAr?$AA?5?$AAs?$AAu?$AAb?$AAs?$AAc?$AAr?$AAi?$AAp?$AAt?$AA?5?$AAo?$AAu?$AAt?$AA?5?$AAo?$AAf?$AA?5?$AAr?$AAa?$AAn?$AAg?$AAe?$AA?$AA@ 00447938     MainFile.obj
 0003:00001974       ??_C@_0DB@NENPEFCK@Left?5button?5of?5the?5mouse?5is?5clic@ 00447974     MainFile.obj
 0003:000019a8       ??_C@_0EC@IMODPMIN@Left?5mouse?5button?5is?5clicked?5whi@ 004479a8     MainFile.obj
 0003:000019f8       ??_C@_0EE@PMCJKKNM@Right?5mouse?5button?5is?5clicked?5wh@ 004479f8     MainFile.obj
 0003:00001a50       ??_C@_0ED@KLBOPBCP@Mouse?5is?5moved?5over?5the?5window?5w@ 00447a50     MainFile.obj
 0003:00001aa0       ??_C@_1IM@NCODKBJH@?$AAc?$AA?3?$AA?2?$AAp?$AAr?$AAo?$AAg?$AAr?$AAa?$AAm?$AA?5?$AAf?$AAi?$AAl?$AAe?$AAs?$AA?5?$AA?$CI?$AAx?$AA8?$AA6?$AA?$CJ?$AA?2?$AAm?$AAi?$AAc?$AAr?$AAo?$AAs?$AAo?$AAf?$AAt@ 00447aa0     MainFile.obj
 0003:00001b2c       ??_C@_0DF@LMOLONNA@c?3?2opencv?2build?2include?2opencv2?2@ 00447b2c     MainFile.obj
 0003:00001b70       ??_C@_0DD@GHINIOKO@Middle?5button?5of?5the?5mouse?5is?5cl@ 00447b70     MainFile.obj
 0003:00001bc0       ??_C@_1FG@IBPIFFN@?$AA?$CC?$AAS?$AAt?$AAa?$AAn?$AAd?$AAa?$AAr?$AAd?$AA?5?$AAC?$AA?$CL?$AA?$CL?$AA?5?$AAL?$AAi?$AAb?$AAr?$AAa?$AAr?$AAi?$AAe?$AAs?$AA?5?$AAO?$AAu?$AAt?$AA?5?$AAo?$AAf?$AA?5?$AAR@ 00447bc0     MainFile.obj
 0003:00001c38       ??_C@_1MA@KDPMCHON@?$AAs?$AAt?$AAd?$AA?3?$AA?3?$AAv?$AAe?$AAc?$AAt?$AAo?$AAr?$AA?$DM?$AAc?$AAl?$AAa?$AAs?$AAs?$AA?5?$AAc?$AAv?$AA?3?$AA?3?$AAV?$AAe?$AAc?$AA?$DM?$AAf?$AAl?$AAo?$AAa?$AAt?$AA?0@ 00447c38     MainFile.obj
 0003:00001cf8       ??_C@_0CH@FMAIOMKI@?5the?5given?5selection?5is?5not?5defi@ 00447cf8     MainFile.obj
 0003:00001d48       ??_C@_1BNI@FGGLEHKK@?$AAs?$AAt?$AAd?$AA?3?$AA?3?$AAv?$AAe?$AAc?$AAt?$AAo?$AAr?$AA?$DM?$AAc?$AAl?$AAa?$AAs?$AAs?$AA?5?$AAs?$AAt?$AAd?$AA?3?$AA?3?$AAv?$AAe?$AAc?$AAt?$AAo?$AAr?$AA?$DM?$AAc?$AAl@ 00447d48     MainFile.obj
 0003:00001f20       ??_C@_0BO@BPLFIBBO@cv?3?3Vec?$DMfloat?03?$DO?3?3operator?5?$FL?$FN?$AA@ 00447f20     MainFile.obj
 0003:00001f58       ??_C@_0CB@CCBKFAH@Error?5loading?5the?5selected?5image@ 00447f58     MainFile.obj
 0003:00001f80       ??_C@_1BME@NCIPHHDN@?$AAs?$AAt?$AAd?$AA?3?$AA?3?$AAv?$AAe?$AAc?$AAt?$AAo?$AAr?$AA?$DM?$AAc?$AAl?$AAa?$AAs?$AAs?$AA?5?$AAs?$AAt?$AAd?$AA?3?$AA?3?$AAb?$AAa?$AAs?$AAi?$AAc?$AA_?$AAs?$AAt?$AAr@ 00447f80     MainFile.obj
 0003:00002144       ??_C@_1CC@LOFJFFDB@?$AAs?$AAt?$AAd?$AA?3?$AA?3?$AA_?$AAD?$AAe?$AAa?$AAl?$AAl?$AAo?$AAc?$AAa?$AAt?$AAe?$AA?$AA@ 00448144     MainFile.obj
 0003:00002168       ??_C@_1DG@HGDKEBPG@?$AA?$CC?$AA_?$AAP?$AAt?$AAr?$AA_?$AAc?$AAo?$AAn?$AAt?$AAa?$AAi?$AAn?$AAe?$AAr?$AA?5?$AA?$CB?$AA?$DN?$AA?5?$AA0?$AA?$CC?$AA?5?$AA?$CG?$AA?$CG?$AA?5?$AA0?$AA?$AA@ 00448168     MainFile.obj
 0003:000021a0       ??_C@_1BNA@NEMMDPAO@?$AAs?$AAt?$AAd?$AA?3?$AA?3?$AAv?$AAe?$AAc?$AAt?$AAo?$AAr?$AA?$DM?$AAc?$AAl?$AAa?$AAs?$AAs?$AA?5?$AAs?$AAt?$AAd?$AA?3?$AA?3?$AAv?$AAe?$AAc?$AAt?$AAo?$AAr?$AA?$DM?$AAc?$AAl@ 004481a0     MainFile.obj
 0003:00002370       ??_C@_0BL@OCKMEJON@_Ptr_container?5?$DM?5_Ptr_user?$AA@ 00448370     MainFile.obj
 0003:0000238c       ??_C@_1CO@DGLIKNHI@?$AAi?$AAn?$AAv?$AAa?$AAl?$AAi?$AAd?$AA?5?$AAi?$AAt?$AAe?$AAr?$AAa?$AAt?$AAo?$AAr?$AA?5?$AAr?$AAa?$AAn?$AAg?$AAe?$AA?$AA@ 0044838c     MainFile.obj
 0003:000023d0       ??_C@_1ME@NAKMFFLL@?$AAs?$AAt?$AAd?$AA?3?$AA?3?$AAv?$AAe?$AAc?$AAt?$AAo?$AAr?$AA?$DM?$AAc?$AAl?$AAa?$AAs?$AAs?$AA?5?$AAc?$AAv?$AA?3?$AA?3?$AAP?$AAo?$AAi?$AAn?$AAt?$AA_?$AA?$DM?$AAf?$AAl?$AAo@ 004483d0     MainFile.obj
 0003:000024c0       ??_C@_1IO@EADHKMNI@?$AAc?$AA?3?$AA?2?$AAp?$AAr?$AAo?$AAg?$AAr?$AAa?$AAm?$AA?5?$AAf?$AAi?$AAl?$AAe?$AAs?$AA?5?$AA?$CI?$AAx?$AA8?$AA6?$AA?$CJ?$AA?2?$AAm?$AAi?$AAc?$AAr?$AAo?$AAs?$AAo?$AAf?$AAt@ 004484c0     MainFile.obj
 0003:00002584       ??_C@_17CNPHIMPH@?$AA?$CF?$AAl?$AAs?$AA?$AA@ 00448584     MainFile.obj
 0003:000025c4       ??_C@_0CN@BLHJCAL@_Ptr_user?5?9?5_Ptr_container?5?$DM?$DN?5_N@ 004485c4     MainFile.obj
 0003:00002610       ??_C@_0BA@JFNIOLAK@string?5too?5long?$AA@ 00448610     MainFile.obj
 0003:00002630       ??_C@_0CO@HCFAKJNO@c?3?2opencv?2build?2include?2opencv2?2@ 00448630     MainFile.obj
 0003:00002684       ??_C@_0BL@IOJJCJFI@?$CIunsigned?$CJi?5?$DM?5?$CIunsigned?$CJcn?$AA@ 00448684     MainFile.obj
 0003:000026c0       ??_C@_0PE@EEJHAIOI@dims?5?$DM?$DN?52?5?$CG?$CG?5data?5?$CG?$CG?5?$CIunsigned?$CJi@ 004486c0     MainFile.obj
 0003:000027e4       ??_C@_0BA@KOLFIDEC@cv?3?3operator?5?$DM?$DM?$AA@ 004487e4     MainFile.obj
 0003:00002818       ??_C@_0BP@FKNCEFNL@No?5element?5name?5has?5been?5given?$AA@ 00448818     MainFile.obj
 0003:00002848       ??_C@_1FK@EJGLHMGC@?$AA?$CC?$AA_?$AAC?$AAo?$AAu?$AAn?$AAt?$AA?5?$AA?$DM?$AA?$DN?$AA?5?$AA?$CI?$AAs?$AAi?$AAz?$AAe?$AA_?$AAt?$AA?$CJ?$AA?$CI?$AA?9?$AA1?$AA?$CJ?$AA?5?$AA?1?$AA?5?$AAs?$AAi?$AAz?$AAe?$AAo?$AAf@ 00448848     MainFile.obj
 0003:000028b8       ??_C@_1JA@DKOIEICI@?$AAc?$AA?3?$AA?2?$AAp?$AAr?$AAo?$AAg?$AAr?$AAa?$AAm?$AA?5?$AAf?$AAi?$AAl?$AAe?$AAs?$AA?5?$AA?$CI?$AAx?$AA8?$AA6?$AA?$CJ?$AA?2?$AAm?$AAi?$AAc?$AAr?$AAo?$AAs?$AAo?$AAf?$AAt@ 004488b8     MainFile.obj
 0003:00002964       ??_C@_0M@HABEDNNI@cv?3?3Mat?3?3at?$AA@ 00448964     MainFile.obj
 0003:0000298c       ??_C@_1CK@EOPGIILJ@?$AAi?$AAn?$AAv?$AAa?$AAl?$AAi?$AAd?$AA?5?$AAn?$AAu?$AAl?$AAl?$AA?5?$AAp?$AAo?$AAi?$AAn?$AAt?$AAe?$AAr?$AA?$AA@ 0044898c     MainFile.obj
 0003:000029bc       ??_C@_0CG@FHBDFCGK@_Count?5?$DM?$DN?5?$CIsize_t?$CJ?$CI?91?$CJ?5?1?5sizeof?5@ 004489bc     MainFile.obj
 0003:00002a00       ??_C@_1HE@CDMBFOKC@?$AA?$CC?$AA?$CI?$AA_?$AAP?$AAt?$AAr?$AA_?$AAu?$AAs?$AAe?$AAr?$AA?5?$AA?$CG?$AA?5?$AA?$CI?$AA_?$AAB?$AAI?$AAG?$AA_?$AAA?$AAL?$AAL?$AAO?$AAC?$AAA?$AAT?$AAI?$AAO?$AAN?$AA_?$AAA@ 00448a00     MainFile.obj
 0003:00002a90       ??_C@_0EI@NOJHEJCJ@reinterpret_cast?$DMuintptr_t?5?$CK?$DO?$CI_P@ 00448a90     MainFile.obj
 0003:00002ae8       ??_C@_1JO@EKLKIEHP@?$AA?$CC?$AAr?$AAe?$AAi?$AAn?$AAt?$AAe?$AAr?$AAp?$AAr?$AAe?$AAt?$AA_?$AAc?$AAa?$AAs?$AAt?$AA?$DM?$AAu?$AAi?$AAn?$AAt?$AAp?$AAt?$AAr?$AA_?$AAt?$AA?5?$AA?$CK?$AA?$DO?$AA?$CI?$AA_@ 00448ae8     MainFile.obj
 0003:00002b88       ??_C@_0CI@FNPHFCCM@Standard?5C?$CL?$CL?5Libraries?5Invalid?5A@ 00448b88     MainFile.obj
 0003:00002bc8       ??_C@_1EE@PDHAHDDC@?$AA?$CC?$AA_?$AAP?$AAt?$AAr?$AA_?$AAc?$AAo?$AAn?$AAt?$AAa?$AAi?$AAn?$AAe?$AAr?$AA?5?$AA?$DM?$AA?5?$AA_?$AAP?$AAt?$AAr?$AA_?$AAu?$AAs?$AAe?$AAr?$AA?$CC?$AA?5?$AA?$CG?$AA?$CG?$AA?5@ 00448bc8     MainFile.obj
 0003:00002c1c       ??_C@_1CG@JNLFBNGN@?$AA?$CC?$AAi?$AAn?$AAv?$AAa?$AAl?$AAi?$AAd?$AA?5?$AAa?$AAr?$AAg?$AAu?$AAm?$AAe?$AAn?$AAt?$AA?$CC?$AA?$AA@ 00448c1c     MainFile.obj
 0003:00002c58       ??_C@_1HA@NAPGMHAO@?$AA?$CC?$AA2?$AA?5?$AA?$CK?$AA?5?$AAs?$AAi?$AAz?$AAe?$AAo?$AAf?$AA?$CI?$AAv?$AAo?$AAi?$AAd?$AA?5?$AA?$CK?$AA?$CJ?$AA?5?$AA?$DM?$AA?$DN?$AA?5?$AA_?$AAP?$AAt?$AAr?$AA_?$AAu?$AAs?$AAe?$AAr@ 00448c58     MainFile.obj
 0003:00002ce0       ??_C@_0DD@GBGGGKGG@?$CI_Ptr_user?5?$CG?5?$CI_BIG_ALLOCATION_AL@ 00448ce0     MainFile.obj
 0003:00002d18       ??_C@_1GI@DHJGPFNI@?$AA?$CC?$AA_?$AAP?$AAt?$AAr?$AA_?$AAu?$AAs?$AAe?$AAr?$AA?5?$AA?9?$AA?5?$AA_?$AAP?$AAt?$AAr?$AA_?$AAc?$AAo?$AAn?$AAt?$AAa?$AAi?$AAn?$AAe?$AAr?$AA?5?$AA?$DM?$AA?$DN?$AA?5?$AA_@ 00448d18     MainFile.obj
 0003:00002dac       ??_C@_0DB@GLFJLNCE@2?5?$CK?5sizeof?$CIvoid?5?$CK?$CJ?5?$DM?$DN?5_Ptr_user?5@ 00448dac     MainFile.obj
 0003:00002de0       ??_C@_1DM@HINDPMBP@?$AAv?$AAe?$AAc?$AAt?$AAo?$AAr?$AA?5?$AAi?$AAt?$AAe?$AAr?$AAa?$AAt?$AAo?$AAr?$AAs?$AA?5?$AAi?$AAn?$AAc?$AAo?$AAm?$AAp?$AAa?$AAt?$AAi?$AAb?$AAl?$AAe?$AA?$AA@ 00448de0     MainFile.obj
 0003:00002e44       ??_C@_1BO@NKFMJPA@?$AAs?$AAt?$AAd?$AA?3?$AA?3?$AA_?$AAA?$AAl?$AAl?$AAo?$AAc?$AAa?$AAt?$AAe?$AA?$AA@ 00448e44     MainFile.obj
 0003:00002e78       ??_C@_1FO@GJIHNDLM@?$AA?$CC?$AAS?$AAt?$AAa?$AAn?$AAd?$AAa?$AAr?$AAd?$AA?5?$AAC?$AA?$CL?$AA?$CL?$AA?5?$AAL?$AAi?$AAb?$AAr?$AAa?$AAr?$AAi?$AAe?$AAs?$AA?5?$AAI?$AAn?$AAv?$AAa?$AAl?$AAi?$AAd?$AA?5@ 00448e78     MainFile.obj
 0003:00002ee8       ??_C@_09GLJCAGLP@_Ptr?5?$CB?$DN?50?$AA@ 00448ee8     MainFile.obj
 0003:00002f20       ??_C@_1CC@GKJLLHIM@?$AA?$CC?$AA_?$AAP?$AAt?$AAr?$AA?5?$AA?$CB?$AA?$DN?$AA?5?$AA0?$AA?$CC?$AA?5?$AA?$CG?$AA?$CG?$AA?5?$AA0?$AA?$AA@ 00448f20     MainFile.obj
 0003:00002f68       ??_C@_1OI@EMBBELP@?$AAs?$AAt?$AAd?$AA?3?$AA?3?$AA_?$AAV?$AAe?$AAc?$AAt?$AAo?$AAr?$AA_?$AAc?$AAo?$AAn?$AAs?$AAt?$AA_?$AAi?$AAt?$AAe?$AAr?$AAa?$AAt?$AAo?$AAr?$AA?$DM?$AAc?$AAl?$AAa?$AAs@ 00448f68     MainFile.obj
 0003:00003080       ??_C@_1IO@KOLLFFAJ@?$AAc?$AA?3?$AA?2?$AAp?$AAr?$AAo?$AAg?$AAr?$AAa?$AAm?$AA?5?$AAf?$AAi?$AAl?$AAe?$AAs?$AA?5?$AA?$CI?$AAx?$AA8?$AA6?$AA?$CJ?$AA?2?$AAm?$AAi?$AAc?$AAr?$AAo?$AAs?$AAo?$AAf?$AAt@ 00449080     MainFile.obj
 0003:00003130       __real@0000000000000000    00449130     MainFile.obj
 0003:00003140       __real@3ee4f8b588e368f1    00449140     MainFile.obj
 0003:00003150       __real@3f847ae147ae147b    00449150     MainFile.obj
 0003:00003160       __real@3ff0000000000000    00449160     MainFile.obj
 0003:00003170       __real@3ff8000000000000    00449170     MainFile.obj
 0003:00003180       __real@4008000000000000    00449180     MainFile.obj
 0003:00003190       __real@403e000000000000    00449190     MainFile.obj
 0003:000031a0       __real@4049000000000000    004491a0     MainFile.obj
 0003:000031b0       __real@405b800000000000    004491b0     MainFile.obj
 0003:000031c0       __real@4060400000000000    004491c0     MainFile.obj
 0003:000031d0       __real@406e000000000000    004491d0     MainFile.obj
 0003:000031e0       __real@406f400000000000    004491e0     MainFile.obj
 0003:000031f0       __real@406fe00000000000    004491f0     MainFile.obj
 0003:00003200       __real@4072c00000000000    00449200     MainFile.obj
 0003:00003210       __real@4074000000000000    00449210     MainFile.obj
 0003:00003220       __real@4082c00000000000    00449220     MainFile.obj
 0003:00003230       __real@4084000000000000    00449230     MainFile.obj
 0003:00003240       __real@40c3880000000000    00449240     MainFile.obj
 0003:00003250       ??_7exception@std@@6B@     00449250     MSVCRTD:throw_bad_alloc.obj
 0003:0000325c       ??_C@_0BC@EOODALEL@Unknown?5exception?$AA@ 0044925c     MSVCRTD:throw_bad_alloc.obj
 0003:00003278       ??_7bad_alloc@std@@6B@     00449278     MSVCRTD:throw_bad_alloc.obj
 0003:00003284       ??_C@_0P@GHFPNOJB@bad?5allocation?$AA@ 00449284     MSVCRTD:throw_bad_alloc.obj
 0003:0000329c       ??_7bad_array_new_length@std@@6B@ 0044929c     MSVCRTD:throw_bad_alloc.obj
 0003:000032a8       ??_C@_0BF@KINCDENJ@bad?5array?5new?5length?$AA@ 004492a8     MSVCRTD:throw_bad_alloc.obj
 0003:00003380       ??_C@_0NN@NGPKDKPD@The?5value?5of?5ESP?5was?5not?5properl@ 00449380     MSVCRTD:_error_.obj
 0003:00003490       ??_C@_0BBN@GPMLNJCF@A?5cast?5to?5a?5smaller?5data?5type?5ha@ 00449490     MSVCRTD:_error_.obj
 0003:000035e8       ??_C@_0BN@FFOINMNJ@Stack?5memory?5was?5corrupted?6?$AN?$AA@ 004495e8     MSVCRTD:_error_.obj
 0003:0000360c       ??_C@_0DG@HKJMLLLP@A?5local?5variable?5was?5used?5before@ 0044960c     MSVCRTD:_error_.obj
 0003:0000364c       ??_C@_0CM@NGINOKPC@Stack?5memory?5around?5_alloca?5was?5@ 0044964c     MSVCRTD:_error_.obj
 0003:00003680       ??_C@_0BO@GNIAFIKK@Unknown?5Runtime?5Check?5Error?6?$AN?$AA@ 00449680     MSVCRTD:_error_.obj
 0003:000036a8       ??_C@_1GM@OLMCBDMB@?$AAR?$AAu?$AAn?$AAt?$AAi?$AAm?$AAe?$AA?5?$AAC?$AAh?$AAe?$AAc?$AAk?$AA?5?$AAE?$AAr?$AAr?$AAo?$AAr?$AA?4?$AA?6?$AA?$AN?$AA?5?$AAU?$AAn?$AAa?$AAb?$AAl?$AAe?$AA?5?$AAt?$AAo@ 004496a8     MSVCRTD:_error_.obj
 0003:00003730       ??_C@_1EA@NFKNIFJP@?$AAR?$AAu?$AAn?$AA?9?$AAT?$AAi?$AAm?$AAe?$AA?5?$AAC?$AAh?$AAe?$AAc?$AAk?$AA?5?$AAF?$AAa?$AAi?$AAl?$AAu?$AAr?$AAe?$AA?5?$AA?$CD?$AA?$CF?$AAd?$AA?5?$AA?9?$AA?5?$AA?$CF?$AAs?$AA?$AA@ 00449730     MSVCRTD:_error_.obj
 0003:0000377c       ??_C@_0BB@PFFGGCJP@Unknown?5Filename?$AA@ 0044977c     MSVCRTD:_error_.obj
 0003:00003790       ??_C@_0BE@GNBOBNCK@Unknown?5Module?5Name?$AA@ 00449790     MSVCRTD:_error_.obj
 0003:000037a8       ??_C@_0CA@IODNCDPG@Run?9Time?5Check?5Failure?5?$CD?$CFd?5?9?5?$CFs?$AA@ 004497a8     MSVCRTD:_error_.obj
 0003:000037d0       ??_C@_0CG@IAFNJNEE@Stack?5corrupted?5near?5unknown?5var@ 004497d0     MSVCRTD:_error_.obj
 0003:00003800       ??_C@_05MKKEDADM@?$CF?42X?5?$AA@ 00449800     MSVCRTD:_error_.obj
 0003:00003808       ??_C@_0EJ@LJKNEOLN@Stack?5area?5around?5_alloca?5memory@ 00449808     MSVCRTD:_error_.obj
 0003:00003860       ??_C@_08OMAHNMHJ@?6Data?3?5?$DM?$AA@ 00449860     MSVCRTD:_error_.obj
 0003:0000386c       ??_C@_0CK@DKGBICFE@?6Allocation?5number?5within?5this?5f@ 0044986c     MSVCRTD:_error_.obj
 0003:000038a0       ??_C@_07DFDJCKFN@?6Size?3?5?$AA@ 004498a0     MSVCRTD:_error_.obj
 0003:000038ac       ??_C@_0N@MHFFIMFG@?6Address?3?50x?$AA@ 004498ac     MSVCRTD:_error_.obj
 0003:000038c0       ??_C@_0EI@CLEPFNGI@Stack?5area?5around?5_alloca?5memory@ 004498c0     MSVCRTD:_error_.obj
 0003:00003918       ??_C@_0BC@HHMKLAND@?$CFs?$CFs?$CFp?$CFs?$CFzd?$CFs?$CFd?$CFs?$AA@ 00449918     MSVCRTD:_error_.obj
 0003:00003930       ??_C@_01EEMJAFIK@?6?$AA@   00449930     MSVCRTD:_error_.obj
 0003:00003934       ??_C@_02LLMPMKNF@?$DO?5?$AA@ 00449934     MSVCRTD:_error_.obj
 0003:00003938       ??_C@_08KJEDNCKC@?$CFs?$CFs?$CFs?$CFs?$AA@ 00449938     MSVCRTD:_error_.obj
 0003:00003944       ??_C@_0DE@OHJBPMBP@A?5variable?5is?5being?5used?5without@ 00449944     MSVCRTD:_error_.obj
 0003:000039a8       ??_C@_0BJ@HEGAHDFO@Stack?5pointer?5corruption?$AA@ 004499a8     MSVCRTD:_userapi_.obj
 0003:000039c8       ??_C@_0CK@FEGOIOPB@Cast?5to?5smaller?5type?5causing?5los@ 004499c8     MSVCRTD:_userapi_.obj
 0003:000039fc       ??_C@_0BI@CIGMDCBH@Stack?5memory?5corruption?$AA@ 004499fc     MSVCRTD:_userapi_.obj
 0003:00003a18       ??_C@_0CK@CNLNOEPB@Local?5variable?5used?5before?5initi@ 00449a18     MSVCRTD:_userapi_.obj
 0003:00003a4c       ??_C@_0BP@OGBCLIBO@Stack?5around?5_alloca?5corrupted?$AA@ 00449a4c     MSVCRTD:_userapi_.obj
 0003:00003a78       ??_7type_info@@6B@         00449a78     MSVCRTD:std_type_info_static.obj
 0003:00003ad8       ??_C@_1EI@MLPKHBGE@?$AAa?$AAp?$AAi?$AA?9?$AAm?$AAs?$AA?9?$AAw?$AAi?$AAn?$AA?9?$AAc?$AAo?$AAr?$AAe?$AA?9?$AAr?$AAe?$AAg?$AAi?$AAs?$AAt?$AAr?$AAy?$AA?9?$AAl?$AA1?$AA?9?$AA1?$AA?9?$AA0?$AA?4@ 00449ad8     MSVCRTD:_pdblkup_.obj
 0003:00003b30       ??_C@_1BK@JHLNAEJL@?$AAa?$AAd?$AAv?$AAa?$AAp?$AAi?$AA3?$AA2?$AA?4?$AAd?$AAl?$AAl?$AA?$AA@ 00449b30     MSVCRTD:_pdblkup_.obj
 0003:00003b50       ??_C@_0O@COHOBMLB@RegOpenKeyExW?$AA@ 00449b50     MSVCRTD:_pdblkup_.obj
 0003:00003b60       ??_C@_0BB@GLNAEDBD@RegQueryValueExW?$AA@ 00449b60     MSVCRTD:_pdblkup_.obj
 0003:00003b74       ??_C@_0M@HLOHPNFA@RegCloseKey?$AA@ 00449b74     MSVCRTD:_pdblkup_.obj
 0003:00003b88       ??_C@_1HE@EBEAGLFB@?$AAS?$AAO?$AAF?$AAT?$AAW?$AAA?$AAR?$AAE?$AA?2?$AAW?$AAo?$AAw?$AA6?$AA4?$AA3?$AA2?$AAN?$AAo?$AAd?$AAe?$AA?2?$AAM?$AAi?$AAc?$AAr?$AAo?$AAs?$AAo?$AAf?$AAt?$AA?2?$AAV@ 00449b88     MSVCRTD:_pdblkup_.obj
 0003:00003c14       ??_C@_1BG@EABPBLLF@?$AAP?$AAr?$AAo?$AAd?$AAu?$AAc?$AAt?$AAD?$AAi?$AAr?$AA?$AA@ 00449c14     MSVCRTD:_pdblkup_.obj
 0003:00003c54       ??_C@_1BC@JINFINNJ@?$AAM?$AAS?$AAP?$AAD?$AAB?$AA1?$AA4?$AA0?$AA?$AA@ 00449c54     MSVCRTD:_pdblkup_.obj
 0003:00003c6c       ??_C@_0BB@KCIACLNC@PDBOpenValidate5?$AA@ 00449c6c     MSVCRTD:_pdblkup_.obj
 0003:00003c80       ??_C@_01KDCPPGHE@r?$AA@    00449c80     MSVCRTD:_pdblkup_.obj
 0003:00003cc8       __load_config_used         00449cc8     MSVCRTD:loadcfg.obj
 0003:00003ef8       ??_R4exception@std@@6B@    00449ef8     MSVCRTD:throw_bad_alloc.obj
 0003:00003f10       ??_R3exception@std@@8      00449f10     MSVCRTD:throw_bad_alloc.obj
 0003:00003f24       ??_R2exception@std@@8      00449f24     MSVCRTD:throw_bad_alloc.obj
 0003:00003f2c       ??_R1A@?0A@EA@exception@std@@8 00449f2c     MSVCRTD:throw_bad_alloc.obj
 0003:00003f50       ??_R4bad_alloc@std@@6B@    00449f50     MSVCRTD:throw_bad_alloc.obj
 0003:00003f68       ??_R3bad_alloc@std@@8      00449f68     MSVCRTD:throw_bad_alloc.obj
 0003:00003f7c       ??_R2bad_alloc@std@@8      00449f7c     MSVCRTD:throw_bad_alloc.obj
 0003:00003f88       ??_R1A@?0A@EA@bad_alloc@std@@8 00449f88     MSVCRTD:throw_bad_alloc.obj
 0003:00003fac       ??_R4bad_array_new_length@std@@6B@ 00449fac     MSVCRTD:throw_bad_alloc.obj
 0003:00003fc4       ??_R3bad_array_new_length@std@@8 00449fc4     MSVCRTD:throw_bad_alloc.obj
 0003:00003fd8       ??_R2bad_array_new_length@std@@8 00449fd8     MSVCRTD:throw_bad_alloc.obj
 0003:00003fe8       ??_R1A@?0A@EA@bad_array_new_length@std@@8 00449fe8     MSVCRTD:throw_bad_alloc.obj
 0003:0000400c       ??_R4type_info@@6B@        0044a00c     MSVCRTD:std_type_info_static.obj
 0003:00004024       ??_R3type_info@@8          0044a024     MSVCRTD:std_type_info_static.obj
 0003:00004038       ??_R2type_info@@8          0044a038     MSVCRTD:std_type_info_static.obj
 0003:00004040       ??_R1A@?0A@EA@type_info@@8 0044a040     MSVCRTD:std_type_info_static.obj
 0003:000042fc       ___rtc_iaa                 0044a2fc     MSVCRTD:_initsect_.obj
 0003:00004504       ___rtc_izz                 0044a504     MSVCRTD:_initsect_.obj
 0003:00004608       ___rtc_taa                 0044a608     MSVCRTD:_initsect_.obj
 0003:00004810       ___rtc_tzz                 0044a810     MSVCRTD:_initsect_.obj
 0003:00006870       __TI2?AVbad_alloc@std@@    0044c870     MSVCRTD:throw_bad_alloc.obj
 0003:00006884       __CTA2?AVbad_alloc@std@@   0044c884     MSVCRTD:throw_bad_alloc.obj
 0003:00006894       __CT??_R0?AVbad_alloc@std@@@8??0bad_alloc@std@@QAE@ABV01@@Z12 0044c894     MSVCRTD:throw_bad_alloc.obj
 0003:000068b4       __CT??_R0?AVexception@std@@@8??0exception@std@@QAE@ABV01@@Z12 0044c8b4     MSVCRTD:throw_bad_alloc.obj
 0003:000068d4       __TI3?AVbad_array_new_length@std@@ 0044c8d4     MSVCRTD:throw_bad_alloc.obj
 0003:000068e8       __CTA3?AVbad_array_new_length@std@@ 0044c8e8     MSVCRTD:throw_bad_alloc.obj
 0003:000068fc       __CT??_R0?AVbad_array_new_length@std@@@8??0bad_array_new_length@std@@QAE@ABV01@@Z12 0044c8fc     MSVCRTD:throw_bad_alloc.obj
 0004:00000000       ?iLastX@@3HA               0044d000     MainFile.obj
 0004:00000004       ?iLastY@@3HA               0044d004     MainFile.obj
 0004:0000000c       ?__LINE__Var@?0???0Mat@cv@@QAE@HHHPAXI@Z@4JA 0044d00c     MainFile.obj
 0004:00000010       ?__LINE__Var@?0???RMatSize@cv@@QBE?AV?$Size_@H@2@XZ@4JA 0044d010     MainFile.obj
 0004:00000014       ___scrt_native_dllmain_reason 0044d014     MSVCRTD:utility.obj
 0004:00000020       ___security_cookie_complement 0044d020     MSVCRTD:gs_cookie.obj
 0004:00000024       ___security_cookie         0044d024     MSVCRTD:gs_cookie.obj
 0004:0000002c       __fltused                  0044d02c     MSVCRTD:fltused.obj
 0004:00000030       ___isa_enabled             0044d030     MSVCRTD:_cpu_disp_.obj
 0004:00000034       ?_RTC_ErrorLevels@@3PAHA   0044d034     MSVCRTD:_error_.obj
 0004:0000004c       ___scrt_default_matherr    0044d04c     MSVCRTD:matherr.obj
 0004:00000050       ___scrt_ucrt_dll_is_in_use 0044d050     MSVCRTD:ucrt_stubs.obj
 0004:00000160       ??_R0?AVbad_alloc@std@@@8  0044d160     MSVCRTD:throw_bad_alloc.obj
 0004:00000184       ??_R0?AVexception@std@@@8  0044d184     MSVCRTD:throw_bad_alloc.obj
 0004:000001a8       ??_R0?AVbad_array_new_length@std@@@8 0044d1a8     MSVCRTD:throw_bad_alloc.obj
 0004:000001d8       ??_R0?AVtype_info@@@8      0044d1d8     MSVCRTD:std_type_info_static.obj
 0004:000002f8       ?posTrackBar@@3HA          0044d2f8     MainFile.obj
 0004:000002fc       ?operation_option@@3HA     0044d2fc     MainFile.obj
 0004:00000300       ?launch_status@@3HA        0044d300     MainFile.obj
 0004:00000318       ?_OptionsStorage@?1??__local_stdio_scanf_options@@9@4_KA 0044d318     MainFile.obj
 0004:00000324       ___scrt_current_native_startup_state 0044d324     MSVCRTD:utility.obj
 0004:00000328       ___scrt_native_startup_lock 0044d328     MSVCRTD:utility.obj
 0004:0000034c       ___isa_available           0044d34c     MSVCRTD:_cpu_disp_.obj
 0004:00000350       ___favor                   0044d350     MSVCRTD:_cpu_disp_.obj
 0004:00000358       ___scrt_debugger_hook_flag 0044d358     MSVCRTD:utility_desktop.obj
 0004:00000360       ?_OptionsStorage@?1??__local_stdio_printf_options@@9@4_KA 0044d360     MSVCRTD:_error_.obj
 0004:00000738       ?__type_info_root_node@@3U__type_info_node@@A 0044d738     MSVCRTD:tncleanup.obj
 0004:0000074c       ___dyn_tls_dtor_callback   0044d74c     <common>
 0004:00000758       ___dyn_tls_init_callback   0044d758     <common>
 0005:00000000       __imp__GetProcAddress@8    0044e000     kernel32:KERNEL32.dll
 0005:00000004       __imp__FreeLibrary@4       0044e004     kernel32:KERNEL32.dll
 0005:00000008       __imp__VirtualQuery@12     0044e008     kernel32:KERNEL32.dll
 0005:0000000c       __imp__GetProcessHeap@0    0044e00c     kernel32:KERNEL32.dll
 0005:00000010       __imp__HeapFree@12         0044e010     kernel32:KERNEL32.dll
 0005:00000014       __imp__HeapAlloc@12        0044e014     kernel32:KERNEL32.dll
 0005:00000018       __imp__GetLastError@0      0044e018     kernel32:KERNEL32.dll
 0005:0000001c       __imp__InitializeSListHead@4 0044e01c     kernel32:KERNEL32.dll
 0005:00000020       __imp__GetSystemTimeAsFileTime@4 0044e020     kernel32:KERNEL32.dll
 0005:00000024       __imp__GetCurrentThreadId@0 0044e024     kernel32:KERNEL32.dll
 0005:00000028       __imp__GetCurrentProcessId@0 0044e028     kernel32:KERNEL32.dll
 0005:0000002c       __imp__QueryPerformanceCounter@4 0044e02c     kernel32:KERNEL32.dll
 0005:00000030       __imp__TerminateProcess@8  0044e030     kernel32:KERNEL32.dll
 0005:00000034       __imp__GetCurrentProcess@0 0044e034     kernel32:KERNEL32.dll
 0005:00000038       __imp__WideCharToMultiByte@32 0044e038     kernel32:KERNEL32.dll
 0005:0000003c       __imp__MultiByteToWideChar@24 0044e03c     kernel32:KERNEL32.dll
 0005:00000040       __imp__RaiseException@16   0044e040     kernel32:KERNEL32.dll
 0005:00000044       __imp__GetModuleHandleW@4  0044e044     kernel32:KERNEL32.dll
 0005:00000048       __imp__GetStartupInfoW@4   0044e048     kernel32:KERNEL32.dll
 0005:0000004c       __imp__SetUnhandledExceptionFilter@4 0044e04c     kernel32:KERNEL32.dll
 0005:00000050       __imp__UnhandledExceptionFilter@4 0044e050     kernel32:KERNEL32.dll
 0005:00000054       __imp__IsDebuggerPresent@0 0044e054     kernel32:KERNEL32.dll
 0005:00000058       __imp__IsProcessorFeaturePresent@4 0044e058     kernel32:KERNEL32.dll
 0005:0000005c       \177KERNEL32_NULL_THUNK_DATA 0044e05c     kernel32:KERNEL32.dll
 0005:00000098       __imp_?cout@std@@3V?$basic_ostream@DU?$char_traits@D@std@@@1@A 0044e098     msvcprtd:MSVCP140D.dll
 0005:0000009c       __imp_?flush@?$basic_ostream@DU?$char_traits@D@std@@@std@@QAEAAV12@XZ 0044e09c     msvcprtd:MSVCP140D.dll
 0005:000000a0       __imp_?put@?$basic_ostream@DU?$char_traits@D@std@@@std@@QAEAAV12@D@Z 0044e0a0     msvcprtd:MSVCP140D.dll
 0005:000000a4       __imp_??6?$basic_ostream@DU?$char_traits@D@std@@@std@@QAEAAV01@N@Z 0044e0a4     msvcprtd:MSVCP140D.dll
 0005:000000a8       __imp_??6?$basic_ostream@DU?$char_traits@D@std@@@std@@QAEAAV01@H@Z 0044e0a8     msvcprtd:MSVCP140D.dll
 0005:000000ac       __imp_??6?$basic_ostream@DU?$char_traits@D@std@@@std@@QAEAAV01@P6AAAV01@AAV01@@Z@Z 0044e0ac     msvcprtd:MSVCP140D.dll
 0005:000000b0       __imp_?_Osfx@?$basic_ostream@DU?$char_traits@D@std@@@std@@QAEXXZ 0044e0b0     msvcprtd:MSVCP140D.dll
 0005:000000b4       __imp_?widen@?$basic_ios@DU?$char_traits@D@std@@@std@@QBEDD@Z 0044e0b4     msvcprtd:MSVCP140D.dll
 0005:000000b8       __imp_?fill@?$basic_ios@DU?$char_traits@D@std@@@std@@QBEDXZ 0044e0b8     msvcprtd:MSVCP140D.dll
 0005:000000bc       __imp_?rdbuf@?$basic_ios@DU?$char_traits@D@std@@@std@@QBEPAV?$basic_streambuf@DU?$char_traits@D@std@@@2@XZ 0044e0bc     msvcprtd:MSVCP140D.dll
 0005:000000c0       __imp_?tie@?$basic_ios@DU?$char_traits@D@std@@@std@@QBEPAV?$basic_ostream@DU?$char_traits@D@std@@@2@XZ 0044e0c0     msvcprtd:MSVCP140D.dll
 0005:000000c4       __imp_?setstate@?$basic_ios@DU?$char_traits@D@std@@@std@@QAEXH_N@Z 0044e0c4     msvcprtd:MSVCP140D.dll
 0005:000000c8       __imp_?sputn@?$basic_streambuf@DU?$char_traits@D@std@@@std@@QAE_JPBD_J@Z 0044e0c8     msvcprtd:MSVCP140D.dll
 0005:000000cc       __imp_?sputc@?$basic_streambuf@DU?$char_traits@D@std@@@std@@QAEHD@Z 0044e0cc     msvcprtd:MSVCP140D.dll
 0005:000000d0       __imp_?width@ios_base@std@@QAE_J_J@Z 0044e0d0     msvcprtd:MSVCP140D.dll
 0005:000000d4       __imp_?width@ios_base@std@@QBE_JXZ 0044e0d4     msvcprtd:MSVCP140D.dll
 0005:000000d8       __imp_?flags@ios_base@std@@QBEHXZ 0044e0d8     msvcprtd:MSVCP140D.dll
 0005:000000dc       __imp_?good@ios_base@std@@QBE_NXZ 0044e0dc     msvcprtd:MSVCP140D.dll
 0005:000000e0       __imp_?_Xout_of_range@std@@YAXPBD@Z 0044e0e0     msvcprtd:MSVCP140D.dll
 0005:000000e4       __imp_?_Xlength_error@std@@YAXPBD@Z 0044e0e4     msvcprtd:MSVCP140D.dll
 0005:000000e8       __imp_?_Xbad_alloc@std@@YAXXZ 0044e0e8     msvcprtd:MSVCP140D.dll
 0005:000000ec       __imp_?_Debug_message@std@@YAXPB_W0I@Z 0044e0ec     msvcprtd:MSVCP140D.dll
 0005:000000f0       __imp_?uncaught_exception@std@@YA_NXZ 0044e0f0     msvcprtd:MSVCP140D.dll
 0005:000000f4       __imp_??1_Lockit@std@@QAE@XZ 0044e0f4     msvcprtd:MSVCP140D.dll
 0005:000000f8       __imp_??0_Lockit@std@@QAE@H@Z 0044e0f8     msvcprtd:MSVCP140D.dll
 0005:000000fc       \177MSVCP140D_NULL_THUNK_DATA 0044e0fc     msvcprtd:MSVCP140D.dll
 0005:0000013c       __imp____vcrt_GetModuleFileNameW 0044e13c     vcruntimed:VCRUNTIME140D.dll
 0005:00000140       __imp____CxxFrameHandler3  0044e140     vcruntimed:VCRUNTIME140D.dll
 0005:00000144       __imp___CxxThrowException@8 0044e144     vcruntimed:VCRUNTIME140D.dll
 0005:00000148       __imp__memmove             0044e148     vcruntimed:VCRUNTIME140D.dll
 0005:0000014c       __imp__memcpy              0044e14c     vcruntimed:VCRUNTIME140D.dll
 0005:00000150       __imp__memcmp              0044e150     vcruntimed:VCRUNTIME140D.dll
 0005:00000154       __imp____telemetry_main_invoke_trigger 0044e154     vcruntimed:VCRUNTIME140D.dll
 0005:00000158       __imp____telemetry_main_return_trigger 0044e158     vcruntimed:VCRUNTIME140D.dll
 0005:0000015c       __imp___except_handler4_common 0044e15c     vcruntimed:VCRUNTIME140D.dll
 0005:00000160       __imp____std_exception_copy 0044e160     vcruntimed:VCRUNTIME140D.dll
 0005:00000164       __imp____std_exception_destroy 0044e164     vcruntimed:VCRUNTIME140D.dll
 0005:00000168       __imp____std_type_info_destroy_list 0044e168     vcruntimed:VCRUNTIME140D.dll
 0005:0000016c       __imp__memset              0044e16c     vcruntimed:VCRUNTIME140D.dll
 0005:00000170       __imp____vcrt_GetModuleHandleW 0044e170     vcruntimed:VCRUNTIME140D.dll
 0005:00000174       __imp____vcrt_LoadLibraryExW 0044e174     vcruntimed:VCRUNTIME140D.dll
 0005:00000178       \177VCRUNTIME140D_NULL_THUNK_DATA 0044e178     vcruntimed:VCRUNTIME140D.dll
 0005:000001b0       __imp_?findChessboardCorners@cv@@YA_NABV_InputArray@1@V?$Size_@H@1@ABV_OutputArray@1@H@Z 0044e1b0     opencv_calib3d300d:opencv_calib3d300d.dll
 0005:000001b4       __imp_?drawChessboardCorners@cv@@YAXABV_InputOutputArray@1@V?$Size_@H@1@ABV_InputArray@1@_N@Z 0044e1b4     opencv_calib3d300d:opencv_calib3d300d.dll
 0005:000001b8       __imp_?stereoCalibrate@cv@@YANABV_InputArray@1@00ABV_InputOutputArray@1@111V?$Size_@H@1@ABV_OutputArray@1@333HVTermCriteria@1@@Z 0044e1b8     opencv_calib3d300d:opencv_calib3d300d.dll
 0005:000001bc       __imp_?stereoRectify@cv@@YAXABV_InputArray@1@000V?$Size_@H@1@00ABV_OutputArray@1@2222HN1PAV?$Rect_@H@1@3@Z 0044e1bc     opencv_calib3d300d:opencv_calib3d300d.dll
 0005:000001c0       __imp_?stereoRectifyUncalibrated@cv@@YA_NABV_InputArray@1@00V?$Size_@H@1@ABV_OutputArray@1@2N@Z 0044e1c0     opencv_calib3d300d:opencv_calib3d300d.dll
 0005:000001c4       __imp_?findFundamentalMat@cv@@YA?AVMat@1@ABV_InputArray@1@0HNNABV_OutputArray@1@@Z 0044e1c4     opencv_calib3d300d:opencv_calib3d300d.dll
 0005:000001c8       __imp_?computeCorrespondEpilines@cv@@YAXABV_InputArray@1@H0ABV_OutputArray@1@@Z 0044e1c8     opencv_calib3d300d:opencv_calib3d300d.dll
 0005:000001cc       \177opencv_calib3d300d_NULL_THUNK_DATA 0044e1cc     opencv_calib3d300d:opencv_calib3d300d.dll
 0005:000001fc       __imp_?noArray@cv@@YAABV_InputOutputArray@1@XZ 0044e1fc     opencv_core300d:opencv_core300d.dll
 0005:00000200       __imp_??0Mat@cv@@QAE@ABV01@ABV?$Rect_@H@1@@Z 0044e200     opencv_core300d:opencv_core300d.dll
 0005:00000204       __imp_?error@cv@@YAXHABVString@1@PBD1H@Z 0044e204     opencv_core300d:opencv_core300d.dll
 0005:00000208       __imp_?deallocate@String@cv@@AAEXXZ 0044e208     opencv_core300d:opencv_core300d.dll
 0005:0000020c       __imp_?allocate@String@cv@@AAEPADI@Z 0044e20c     opencv_core300d:opencv_core300d.dll
 0005:00000210       __imp_?copyTo@Mat@cv@@QBEXABV_OutputArray@2@@Z 0044e210     opencv_core300d:opencv_core300d.dll
 0005:00000214       __imp_?convertTo@Mat@cv@@QBEXABV_OutputArray@2@HNN@Z 0044e214     opencv_core300d:opencv_core300d.dll
 0005:00000218       __imp_?inv@Mat@cv@@QBE?AVMatExpr@2@H@Z 0044e218     opencv_core300d:opencv_core300d.dll
 0005:0000021c       __imp_?eye@Mat@cv@@SA?AVMatExpr@2@HHH@Z 0044e21c     opencv_core300d:opencv_core300d.dll
 0005:00000220       __imp_?fastFree@cv@@YAXPAX@Z 0044e220     opencv_core300d:opencv_core300d.dll
 0005:00000224       __imp_?bitwise_and@cv@@YAXABV_InputArray@1@0ABV_OutputArray@1@0@Z 0044e224     opencv_core300d:opencv_core300d.dll
 0005:00000228       __imp_??6cv@@YAAAVFileStorage@0@AAV10@ABVString@0@@Z 0044e228     opencv_core300d:opencv_core300d.dll
 0005:0000022c       __imp_?read@cv@@YAXABVFileNode@1@AAVString@1@ABV31@@Z 0044e22c     opencv_core300d:opencv_core300d.dll
 0005:00000230       __imp_?write@cv@@YAXAAVFileStorage@1@ABVString@1@ABVMat@1@@Z 0044e230     opencv_core300d:opencv_core300d.dll
 0005:00000234       __imp_??EFileNodeIterator@cv@@QAEAAV01@XZ 0044e234     opencv_core300d:opencv_core300d.dll
 0005:00000238       __imp_??0FileNodeIterator@cv@@QAE@PBUCvFileStorage@@PBUCvFileNode@@I@Z 0044e238     opencv_core300d:opencv_core300d.dll
 0005:0000023c       __imp_?size@FileNode@cv@@QBEIXZ 0044e23c     opencv_core300d:opencv_core300d.dll
 0005:00000240       __imp_?type@FileNode@cv@@QBEHXZ 0044e240     opencv_core300d:opencv_core300d.dll
 0005:00000244       __imp_?root@FileStorage@cv@@QBE?AVFileNode@2@H@Z 0044e244     opencv_core300d:opencv_core300d.dll
 0005:00000248       __imp_?release@FileStorage@cv@@UAEXXZ 0044e248     opencv_core300d:opencv_core300d.dll
 0005:0000024c       __imp_?isOpened@FileStorage@cv@@UBE_NXZ 0044e24c     opencv_core300d:opencv_core300d.dll
 0005:00000250       __imp_?open@FileStorage@cv@@UAE_NABVString@2@H0@Z 0044e250     opencv_core300d:opencv_core300d.dll
 0005:00000254       __imp_?create@Mat@cv@@QAEXHPBHH@Z 0044e254     opencv_core300d:opencv_core300d.dll
 0005:00000258       __imp_?deallocate@Mat@cv@@QAEXXZ 0044e258     opencv_core300d:opencv_core300d.dll
 0005:0000025c       __imp_?copySize@Mat@cv@@QAEXABV12@@Z 0044e25c     opencv_core300d:opencv_core300d.dll
 0005:00000260       __imp_??Dcv@@YA?AVMatExpr@0@ABV10@ABVMat@0@@Z 0044e260     opencv_core300d:opencv_core300d.dll
 0005:00000264       __imp_??0FileStorage@cv@@QAE@ABVString@1@H0@Z 0044e264     opencv_core300d:opencv_core300d.dll
 0005:00000268       __imp_?inRange@cv@@YAXABV_InputArray@1@00ABV_OutputArray@1@@Z 0044e268     opencv_core300d:opencv_core300d.dll
 0005:0000026c       __imp_??1FileStorage@cv@@UAE@XZ 0044e26c     opencv_core300d:opencv_core300d.dll
 0005:00000270       \177opencv_core300d_NULL_THUNK_DATA 0044e270     opencv_core300d:opencv_core300d.dll
 0005:000002b0       __imp_?waitKey@cv@@YAHH@Z  0044e2b0     opencv_highgui300d:opencv_highgui300d.dll
 0005:000002b4       __imp_?imshow@cv@@YAXABVString@1@ABV_InputArray@1@@Z 0044e2b4     opencv_highgui300d:opencv_highgui300d.dll
 0005:000002b8       __imp_?setMouseCallback@cv@@YAXABVString@1@P6AXHHHHPAX@Z1@Z 0044e2b8     opencv_highgui300d:opencv_highgui300d.dll
 0005:000002bc       __imp_?setTrackbarPos@cv@@YAXABVString@1@0H@Z 0044e2bc     opencv_highgui300d:opencv_highgui300d.dll
 0005:000002c0       __imp_?createButton@cv@@YAHABVString@1@P6AXHPAX@Z1H_N@Z 0044e2c0     opencv_highgui300d:opencv_highgui300d.dll
 0005:000002c4       __imp__cvCreateTrackbar    0044e2c4     opencv_highgui300d:opencv_highgui300d.dll
 0005:000002c8       __imp_?namedWindow@cv@@YAXABVString@1@H@Z 0044e2c8     opencv_highgui300d:opencv_highgui300d.dll
 0005:000002cc       \177opencv_highgui300d_NULL_THUNK_DATA 0044e2cc     opencv_highgui300d:opencv_highgui300d.dll
 0005:000002fc       __imp_?imread@cv@@YA?AVMat@1@ABVString@1@H@Z 0044e2fc     opencv_imgcodecs300d:opencv_imgcodecs300d.dll
 0005:00000300       \177opencv_imgcodecs300d_NULL_THUNK_DATA 0044e300     opencv_imgcodecs300d:opencv_imgcodecs300d.dll
 0005:0000032c       __imp_?GaussianBlur@cv@@YAXABV_InputArray@1@ABV_OutputArray@1@V?$Size_@H@1@NNH@Z 0044e32c     opencv_imgproc300d:opencv_imgproc300d.dll
 0005:00000330       __imp_?Canny@cv@@YAXABV_InputArray@1@ABV_OutputArray@1@NNH_N@Z 0044e330     opencv_imgproc300d:opencv_imgproc300d.dll
 0005:00000334       __imp_?rectangle@cv@@YAXAAVMat@1@V?$Rect_@H@1@ABV?$Scalar_@N@1@HHH@Z 0044e334     opencv_imgproc300d:opencv_imgproc300d.dll
 0005:00000338       __imp_?line@cv@@YAXABV_InputOutputArray@1@V?$Point_@H@1@1ABV?$Scalar_@N@1@HHH@Z 0044e338     opencv_imgproc300d:opencv_imgproc300d.dll
 0005:0000033c       __imp_?moments@cv@@YA?AVMoments@1@ABV_InputArray@1@_N@Z 0044e33c     opencv_imgproc300d:opencv_imgproc300d.dll
 0005:00000340       __imp_?cvtColor@cv@@YAXABV_InputArray@1@ABV_OutputArray@1@HH@Z 0044e340     opencv_imgproc300d:opencv_imgproc300d.dll
 0005:00000344       __imp_?undistortPoints@cv@@YAXABV_InputArray@1@ABV_OutputArray@1@0000@Z 0044e344     opencv_imgproc300d:opencv_imgproc300d.dll
 0005:00000348       __imp_?initUndistortRectifyMap@cv@@YAXABV_InputArray@1@000V?$Size_@H@1@HABV_OutputArray@1@2@Z 0044e348     opencv_imgproc300d:opencv_imgproc300d.dll
 0005:0000034c       __imp_?remap@cv@@YAXABV_InputArray@1@ABV_OutputArray@1@00HHABV?$Scalar_@N@1@@Z 0044e34c     opencv_imgproc300d:opencv_imgproc300d.dll
 0005:00000350       __imp_?resize@cv@@YAXABV_InputArray@1@ABV_OutputArray@1@V?$Size_@H@1@NNH@Z 0044e350     opencv_imgproc300d:opencv_imgproc300d.dll
 0005:00000354       __imp_?cornerSubPix@cv@@YAXABV_InputArray@1@ABV_InputOutputArray@1@V?$Size_@H@1@2VTermCriteria@1@@Z 0044e354     opencv_imgproc300d:opencv_imgproc300d.dll
 0005:00000358       \177opencv_imgproc300d_NULL_THUNK_DATA 0044e358     opencv_imgproc300d:opencv_imgproc300d.dll
 0005:0000038c       __imp_??0VideoCapture@cv@@QAE@XZ 0044e38c     opencv_videoio300d:opencv_videoio300d.dll
 0005:00000390       __imp_??0VideoCapture@cv@@QAE@H@Z 0044e390     opencv_videoio300d:opencv_videoio300d.dll
 0005:00000394       __imp_??1VideoCapture@cv@@UAE@XZ 0044e394     opencv_videoio300d:opencv_videoio300d.dll
 0005:00000398       __imp_?isOpened@VideoCapture@cv@@UBE_NXZ 0044e398     opencv_videoio300d:opencv_videoio300d.dll
 0005:0000039c       __imp_?set@VideoCapture@cv@@UAE_NHN@Z 0044e39c     opencv_videoio300d:opencv_videoio300d.dll
 0005:000003a0       __imp_?get@VideoCapture@cv@@UBENH@Z 0044e3a0     opencv_videoio300d:opencv_videoio300d.dll
 0005:000003a4       __imp_??0VideoWriter@cv@@QAE@XZ 0044e3a4     opencv_videoio300d:opencv_videoio300d.dll
 0005:000003a8       __imp_??1VideoWriter@cv@@UAE@XZ 0044e3a8     opencv_videoio300d:opencv_videoio300d.dll
 0005:000003ac       __imp_?open@VideoWriter@cv@@UAE_NABVString@2@HNV?$Size_@H@2@_N@Z 0044e3ac     opencv_videoio300d:opencv_videoio300d.dll
 0005:000003b0       __imp_??0VideoCapture@cv@@QAE@ABVString@1@@Z 0044e3b0     opencv_videoio300d:opencv_videoio300d.dll
 0005:000003b4       \177opencv_videoio300d_NULL_THUNK_DATA 0044e3b4     opencv_videoio300d:opencv_videoio300d.dll
 0005:000003e8       __imp___get_initial_narrow_environment 0044e3e8     ucrtd:ucrtbased.dll
 0005:000003ec       __imp___initterm           0044e3ec     ucrtd:ucrtbased.dll
 0005:000003f0       __imp___initterm_e         0044e3f0     ucrtd:ucrtbased.dll
 0005:000003f4       __imp___exit               0044e3f4     ucrtd:ucrtbased.dll
 0005:000003f8       __imp___set_fmode          0044e3f8     ucrtd:ucrtbased.dll
 0005:000003fc       __imp____p___argc          0044e3fc     ucrtd:ucrtbased.dll
 0005:00000400       __imp____p___argv          0044e400     ucrtd:ucrtbased.dll
 0005:00000404       __imp___c_exit             0044e404     ucrtd:ucrtbased.dll
 0005:00000408       __imp___register_thread_local_exe_atexit_callback 0044e408     ucrtd:ucrtbased.dll
 0005:0000040c       __imp___configthreadlocale 0044e40c     ucrtd:ucrtbased.dll
 0005:00000410       __imp___set_new_mode       0044e410     ucrtd:ucrtbased.dll
 0005:00000414       __imp____p__commode        0044e414     ucrtd:ucrtbased.dll
 0005:00000418       __imp____stdio_common_vsprintf_s 0044e418     ucrtd:ucrtbased.dll
 0005:0000041c       __imp___controlfp_s        0044e41c     ucrtd:ucrtbased.dll
 0005:00000420       __imp___configure_narrow_argv 0044e420     ucrtd:ucrtbased.dll
 0005:00000424       __imp___wsplitpath_s       0044e424     ucrtd:ucrtbased.dll
 0005:00000428       __imp__wcscpy_s            0044e428     ucrtd:ucrtbased.dll
 0005:0000042c       __imp___initialize_narrow_environment 0044e42c     ucrtd:ucrtbased.dll
 0005:00000430       __imp___seh_filter_dll     0044e430     ucrtd:ucrtbased.dll
 0005:00000434       __imp___free_dbg           0044e434     ucrtd:ucrtbased.dll
 0005:00000438       __imp__malloc              0044e438     ucrtd:ucrtbased.dll
 0005:0000043c       __imp___callnewh           0044e43c     ucrtd:ucrtbased.dll
 0005:00000440       __imp__terminate           0044e440     ucrtd:ucrtbased.dll
 0005:00000444       __imp___CrtDbgReportW      0044e444     ucrtd:ucrtbased.dll
 0005:00000448       __imp__strlen              0044e448     ucrtd:ucrtbased.dll
 0005:0000044c       __imp____stdio_common_vsscanf 0044e44c     ucrtd:ucrtbased.dll
 0005:00000450       __imp__putchar             0044e450     ucrtd:ucrtbased.dll
 0005:00000454       __imp__exit                0044e454     ucrtd:ucrtbased.dll
 0005:00000458       __imp___invalid_parameter  0044e458     ucrtd:ucrtbased.dll
 0005:0000045c       __imp____setusermatherr    0044e45c     ucrtd:ucrtbased.dll
 0005:00000460       __imp___set_app_type       0044e460     ucrtd:ucrtbased.dll
 0005:00000464       __imp___seh_filter_exe     0044e464     ucrtd:ucrtbased.dll
 0005:00000468       __imp___CrtDbgReport       0044e468     ucrtd:ucrtbased.dll
 0005:0000046c       __imp___cexit              0044e46c     ucrtd:ucrtbased.dll
 0005:00000470       __imp___crt_at_quick_exit  0044e470     ucrtd:ucrtbased.dll
 0005:00000474       __imp___crt_atexit         0044e474     ucrtd:ucrtbased.dll
 0005:00000478       __imp___execute_onexit_table 0044e478     ucrtd:ucrtbased.dll
 0005:0000047c       __imp___register_onexit_function 0044e47c     ucrtd:ucrtbased.dll
 0005:00000480       __imp___wmakepath_s        0044e480     ucrtd:ucrtbased.dll
 0005:00000484       __imp___initialize_onexit_table 0044e484     ucrtd:ucrtbased.dll
 0005:00000488       __imp__fabs                0044e488     ucrtd:ucrtbased.dll
 0005:0000048c       \177ucrtbased_NULL_THUNK_DATA 0044e48c     ucrtd:ucrtbased.dll
 0005:000004d8       __IMPORT_DESCRIPTOR_opencv_calib3d300d 0044e4d8     opencv_calib3d300d:opencv_calib3d300d.dll
 0005:000004ec       __IMPORT_DESCRIPTOR_opencv_core300d 0044e4ec     opencv_core300d:opencv_core300d.dll
 0005:00000500       __IMPORT_DESCRIPTOR_opencv_highgui300d 0044e500     opencv_highgui300d:opencv_highgui300d.dll
 0005:00000514       __IMPORT_DESCRIPTOR_opencv_imgcodecs300d 0044e514     opencv_imgcodecs300d:opencv_imgcodecs300d.dll
 0005:00000528       __IMPORT_DESCRIPTOR_opencv_imgproc300d 0044e528     opencv_imgproc300d:opencv_imgproc300d.dll
 0005:0000053c       __IMPORT_DESCRIPTOR_opencv_videoio300d 0044e53c     opencv_videoio300d:opencv_videoio300d.dll
 0005:00000550       __IMPORT_DESCRIPTOR_MSVCP140D 0044e550     msvcprtd:MSVCP140D.dll
 0005:00000564       __IMPORT_DESCRIPTOR_VCRUNTIME140D 0044e564     vcruntimed:VCRUNTIME140D.dll
 0005:00000578       __IMPORT_DESCRIPTOR_ucrtbased 0044e578     ucrtd:ucrtbased.dll
 0005:0000058c       __IMPORT_DESCRIPTOR_KERNEL32 0044e58c     kernel32:KERNEL32.dll
 0005:000005a0       __NULL_IMPORT_DESCRIPTOR   0044e5a0     opencv_calib3d300d:opencv_calib3d300d.dll
 0006:00000000       ___guard_check_icall_fptr  00451000     MSVCRTD:guard_support.obj
